	.text
	.file	"23tng9o754880hws"
	.section	".text._ZN119_$LT$core..ptr..non_null..NonNull$LT$T$GT$$u20$as$u20$core..convert..From$LT$core..ptr..unique..Unique$LT$T$GT$$GT$$GT$4from17h4b42f14dfae4f9e3E","ax",@progbits
	.p2align	4, 0x90
	.type	_ZN119_$LT$core..ptr..non_null..NonNull$LT$T$GT$$u20$as$u20$core..convert..From$LT$core..ptr..unique..Unique$LT$T$GT$$GT$$GT$4from17h4b42f14dfae4f9e3E,@function
_ZN119_$LT$core..ptr..non_null..NonNull$LT$T$GT$$u20$as$u20$core..convert..From$LT$core..ptr..unique..Unique$LT$T$GT$$GT$$GT$4from17h4b42f14dfae4f9e3E:
.Lfunc_begin0:
	.file	1 "/rustc/f1edd0429582dd29cccacaf50fd134b05593bd9c/library/core/src/ptr/non_null.rs"
	.loc	1 703 0
	.cfi_startproc
	subq	$24, %rsp
	.cfi_def_cfa_offset 32
	movq	%rdi, 16(%rsp)
.Ltmp0:
	.loc	1 706 41 prologue_end
	callq	_ZN4core3ptr6unique15Unique$LT$T$GT$6as_ptr17h38f289465a9cc55fE
	movq	%rax, 8(%rsp)
	.loc	1 0 41 is_stmt 0
	movq	8(%rsp), %rdi
	.loc	1 706 18
	callq	_ZN4core3ptr8non_null16NonNull$LT$T$GT$13new_unchecked17h32907eb9fb351a26E
	movq	%rax, (%rsp)
	.loc	1 0 18
	movq	(%rsp), %rax
	.loc	1 707 6 is_stmt 1
	addq	$24, %rsp
	.cfi_def_cfa_offset 8
	retq
.Ltmp1:
.Lfunc_end0:
	.size	_ZN119_$LT$core..ptr..non_null..NonNull$LT$T$GT$$u20$as$u20$core..convert..From$LT$core..ptr..unique..Unique$LT$T$GT$$GT$$GT$4from17h4b42f14dfae4f9e3E, .Lfunc_end0-_ZN119_$LT$core..ptr..non_null..NonNull$LT$T$GT$$u20$as$u20$core..convert..From$LT$core..ptr..unique..Unique$LT$T$GT$$GT$$GT$4from17h4b42f14dfae4f9e3E
	.cfi_endproc

	.section	".text._ZN122_$LT$alloc..collections..TryReserveError$u20$as$u20$core..convert..From$LT$alloc..collections..TryReserveErrorKind$GT$$GT$4from17h4631a27ab5b83ef2E","ax",@progbits
	.p2align	4, 0x90
	.type	_ZN122_$LT$alloc..collections..TryReserveError$u20$as$u20$core..convert..From$LT$alloc..collections..TryReserveErrorKind$GT$$GT$4from17h4631a27ab5b83ef2E,@function
_ZN122_$LT$alloc..collections..TryReserveError$u20$as$u20$core..convert..From$LT$alloc..collections..TryReserveErrorKind$GT$$GT$4from17h4631a27ab5b83ef2E:
.Lfunc_begin1:
	.file	2 "/rustc/f1edd0429582dd29cccacaf50fd134b05593bd9c/library/alloc/src/collections/mod.rs"
	.loc	2 115 0
	.cfi_startproc
	subq	$32, %rsp
	.cfi_def_cfa_offset 40
	movq	%rdi, 16(%rsp)
	movq	%rsi, 24(%rsp)
.Ltmp2:
	.loc	2 116 9 prologue_end
	movq	%rdi, (%rsp)
	movq	%rsi, 8(%rsp)
	.loc	2 117 6
	movq	(%rsp), %rax
	movq	8(%rsp), %rdx
	addq	$32, %rsp
	.cfi_def_cfa_offset 8
	retq
.Ltmp3:
.Lfunc_end1:
	.size	_ZN122_$LT$alloc..collections..TryReserveError$u20$as$u20$core..convert..From$LT$alloc..collections..TryReserveErrorKind$GT$$GT$4from17h4631a27ab5b83ef2E, .Lfunc_end1-_ZN122_$LT$alloc..collections..TryReserveError$u20$as$u20$core..convert..From$LT$alloc..collections..TryReserveErrorKind$GT$$GT$4from17h4631a27ab5b83ef2E
	.cfi_endproc

	.section	".text._ZN132_$LT$alloc..vec..Vec$LT$T$C$A$GT$$u20$as$u20$alloc..vec..spec_extend..SpecExtend$LT$$RF$T$C$core..slice..iter..Iter$LT$T$GT$$GT$$GT$11spec_extend17h907e5c29f4d2bccfE","ax",@progbits
	.p2align	4, 0x90
	.type	_ZN132_$LT$alloc..vec..Vec$LT$T$C$A$GT$$u20$as$u20$alloc..vec..spec_extend..SpecExtend$LT$$RF$T$C$core..slice..iter..Iter$LT$T$GT$$GT$$GT$11spec_extend17h907e5c29f4d2bccfE,@function
_ZN132_$LT$alloc..vec..Vec$LT$T$C$A$GT$$u20$as$u20$alloc..vec..spec_extend..SpecExtend$LT$$RF$T$C$core..slice..iter..Iter$LT$T$GT$$GT$$GT$11spec_extend17h907e5c29f4d2bccfE:
.Lfunc_begin2:
	.file	3 "/rustc/f1edd0429582dd29cccacaf50fd134b05593bd9c/library/alloc/src/vec/spec_extend.rs"
	.loc	3 83 0
	.cfi_startproc
	subq	$72, %rsp
	.cfi_def_cfa_offset 80
	movq	%rdi, 8(%rsp)
	movq	%rsi, 32(%rsp)
	movq	%rdx, 40(%rsp)
	movq	%rdi, 48(%rsp)
.Ltmp4:
	.loc	3 84 21 prologue_end
	leaq	32(%rsp), %rdi
	callq	_ZN4core5slice4iter13Iter$LT$T$GT$8as_slice17hcd6673e63bdf40daE
	movq	%rax, 16(%rsp)
	movq	%rdx, 24(%rsp)
	movq	%rax, 56(%rsp)
	movq	%rdx, 64(%rsp)
	.loc	3 0 21 is_stmt 0
	movq	24(%rsp), %rdx
	movq	16(%rsp), %rsi
	movq	8(%rsp), %rdi
.Ltmp5:
	.loc	3 85 18 is_stmt 1
	callq	_ZN5alloc3vec16Vec$LT$T$C$A$GT$15append_elements17h9c0441e72c2e7473E
.Ltmp6:
	.loc	3 86 6
	addq	$72, %rsp
	.cfi_def_cfa_offset 8
	retq
.Ltmp7:
.Lfunc_end2:
	.size	_ZN132_$LT$alloc..vec..Vec$LT$T$C$A$GT$$u20$as$u20$alloc..vec..spec_extend..SpecExtend$LT$$RF$T$C$core..slice..iter..Iter$LT$T$GT$$GT$$GT$11spec_extend17h907e5c29f4d2bccfE, .Lfunc_end2-_ZN132_$LT$alloc..vec..Vec$LT$T$C$A$GT$$u20$as$u20$alloc..vec..spec_extend..SpecExtend$LT$$RF$T$C$core..slice..iter..Iter$LT$T$GT$$GT$$GT$11spec_extend17h907e5c29f4d2bccfE
	.cfi_endproc

	.section	".text._ZN153_$LT$core..result..Result$LT$T$C$F$GT$$u20$as$u20$core..ops..try_trait..FromResidual$LT$core..result..Result$LT$core..convert..Infallible$C$E$GT$$GT$$GT$13from_residual17h06f2fbfc7dec06adE","ax",@progbits
	.p2align	4, 0x90
	.type	_ZN153_$LT$core..result..Result$LT$T$C$F$GT$$u20$as$u20$core..ops..try_trait..FromResidual$LT$core..result..Result$LT$core..convert..Infallible$C$E$GT$$GT$$GT$13from_residual17h06f2fbfc7dec06adE,@function
_ZN153_$LT$core..result..Result$LT$T$C$F$GT$$u20$as$u20$core..ops..try_trait..FromResidual$LT$core..result..Result$LT$core..convert..Infallible$C$E$GT$$GT$$GT$13from_residual17h06f2fbfc7dec06adE:
.Lfunc_begin3:
	.file	4 "/rustc/f1edd0429582dd29cccacaf50fd134b05593bd9c/library/core/src/result.rs"
	.loc	4 1912 0
	.cfi_startproc
	subq	$72, %rsp
	.cfi_def_cfa_offset 80
	movq	%rdi, 8(%rsp)
	movq	%rdi, 16(%rsp)
	movq	%rsi, 40(%rsp)
	movq	%rdx, 48(%rsp)
.Ltmp8:
	.loc	4 1914 17 prologue_end
	movq	40(%rsp), %rdi
	movq	48(%rsp), %rsi
	movq	%rdi, 56(%rsp)
	movq	%rsi, 64(%rsp)
.Ltmp9:
	.loc	4 1914 27 is_stmt 0
	callq	_ZN50_$LT$T$u20$as$u20$core..convert..From$LT$T$GT$$GT$4from17hfe5772545c06ad30E
	movq	%rax, 24(%rsp)
	movq	%rdx, 32(%rsp)
	.loc	4 0 27
	movq	16(%rsp), %rax
	movq	8(%rsp), %rcx
	movq	32(%rsp), %rdx
	movq	24(%rsp), %rsi
	.loc	4 1914 23
	movq	%rsi, 8(%rcx)
	movq	%rdx, 16(%rcx)
	movq	$1, (%rcx)
.Ltmp10:
	.loc	4 1916 6 is_stmt 1
	addq	$72, %rsp
	.cfi_def_cfa_offset 8
	retq
.Ltmp11:
.Lfunc_end3:
	.size	_ZN153_$LT$core..result..Result$LT$T$C$F$GT$$u20$as$u20$core..ops..try_trait..FromResidual$LT$core..result..Result$LT$core..convert..Infallible$C$E$GT$$GT$$GT$13from_residual17h06f2fbfc7dec06adE, .Lfunc_end3-_ZN153_$LT$core..result..Result$LT$T$C$F$GT$$u20$as$u20$core..ops..try_trait..FromResidual$LT$core..result..Result$LT$core..convert..Infallible$C$E$GT$$GT$$GT$13from_residual17h06f2fbfc7dec06adE
	.cfi_endproc

	.section	".text._ZN153_$LT$core..result..Result$LT$T$C$F$GT$$u20$as$u20$core..ops..try_trait..FromResidual$LT$core..result..Result$LT$core..convert..Infallible$C$E$GT$$GT$$GT$13from_residual17h25ef5a451a3ddfcbE","ax",@progbits
	.p2align	4, 0x90
	.type	_ZN153_$LT$core..result..Result$LT$T$C$F$GT$$u20$as$u20$core..ops..try_trait..FromResidual$LT$core..result..Result$LT$core..convert..Infallible$C$E$GT$$GT$$GT$13from_residual17h25ef5a451a3ddfcbE,@function
_ZN153_$LT$core..result..Result$LT$T$C$F$GT$$u20$as$u20$core..ops..try_trait..FromResidual$LT$core..result..Result$LT$core..convert..Infallible$C$E$GT$$GT$$GT$13from_residual17h25ef5a451a3ddfcbE:
.Lfunc_begin4:
	.loc	4 1912 0
	.cfi_startproc
	subq	$72, %rsp
	.cfi_def_cfa_offset 80
	movq	%rdi, 8(%rsp)
	movq	%rdi, 16(%rsp)
	movq	%rsi, 40(%rsp)
	movq	%rdx, 48(%rsp)
.Ltmp12:
	.loc	4 1914 17 prologue_end
	movq	40(%rsp), %rdi
	movq	48(%rsp), %rsi
	movq	%rdi, 56(%rsp)
	movq	%rsi, 64(%rsp)
.Ltmp13:
	.loc	4 1914 27 is_stmt 0
	callq	_ZN50_$LT$T$u20$as$u20$core..convert..From$LT$T$GT$$GT$4from17hfe5772545c06ad30E
	movq	%rax, 24(%rsp)
	movq	%rdx, 32(%rsp)
	.loc	4 0 27
	movq	16(%rsp), %rax
	movq	8(%rsp), %rcx
	movq	32(%rsp), %rdx
	movq	24(%rsp), %rsi
	.loc	4 1914 23
	movq	%rsi, 8(%rcx)
	movq	%rdx, 16(%rcx)
	movq	$1, (%rcx)
.Ltmp14:
	.loc	4 1916 6 is_stmt 1
	addq	$72, %rsp
	.cfi_def_cfa_offset 8
	retq
.Ltmp15:
.Lfunc_end4:
	.size	_ZN153_$LT$core..result..Result$LT$T$C$F$GT$$u20$as$u20$core..ops..try_trait..FromResidual$LT$core..result..Result$LT$core..convert..Infallible$C$E$GT$$GT$$GT$13from_residual17h25ef5a451a3ddfcbE, .Lfunc_end4-_ZN153_$LT$core..result..Result$LT$T$C$F$GT$$u20$as$u20$core..ops..try_trait..FromResidual$LT$core..result..Result$LT$core..convert..Infallible$C$E$GT$$GT$$GT$13from_residual17h25ef5a451a3ddfcbE
	.cfi_endproc

	.section	".text._ZN153_$LT$core..result..Result$LT$T$C$F$GT$$u20$as$u20$core..ops..try_trait..FromResidual$LT$core..result..Result$LT$core..convert..Infallible$C$E$GT$$GT$$GT$13from_residual17h3cda350f0a000915E","ax",@progbits
	.p2align	4, 0x90
	.type	_ZN153_$LT$core..result..Result$LT$T$C$F$GT$$u20$as$u20$core..ops..try_trait..FromResidual$LT$core..result..Result$LT$core..convert..Infallible$C$E$GT$$GT$$GT$13from_residual17h3cda350f0a000915E,@function
_ZN153_$LT$core..result..Result$LT$T$C$F$GT$$u20$as$u20$core..ops..try_trait..FromResidual$LT$core..result..Result$LT$core..convert..Infallible$C$E$GT$$GT$$GT$13from_residual17h3cda350f0a000915E:
.Lfunc_begin5:
	.loc	4 1912 0
	.cfi_startproc
	subq	$72, %rsp
	.cfi_def_cfa_offset 80
	movq	%rdi, 8(%rsp)
	movq	%rdi, 16(%rsp)
	movq	%rsi, 40(%rsp)
	movq	%rdx, 48(%rsp)
.Ltmp16:
	.loc	4 1914 17 prologue_end
	movq	40(%rsp), %rdi
	movq	48(%rsp), %rsi
	movq	%rdi, 56(%rsp)
	movq	%rsi, 64(%rsp)
.Ltmp17:
	.loc	4 1914 27 is_stmt 0
	callq	_ZN122_$LT$alloc..collections..TryReserveError$u20$as$u20$core..convert..From$LT$alloc..collections..TryReserveErrorKind$GT$$GT$4from17h4631a27ab5b83ef2E
	movq	%rax, 24(%rsp)
	movq	%rdx, 32(%rsp)
	.loc	4 0 27
	movq	16(%rsp), %rax
	movq	8(%rsp), %rcx
	movq	32(%rsp), %rdx
	movq	24(%rsp), %rsi
	.loc	4 1914 23
	movq	%rsi, 8(%rcx)
	movq	%rdx, 16(%rcx)
	movq	$1, (%rcx)
.Ltmp18:
	.loc	4 1916 6 is_stmt 1
	addq	$72, %rsp
	.cfi_def_cfa_offset 8
	retq
.Ltmp19:
.Lfunc_end5:
	.size	_ZN153_$LT$core..result..Result$LT$T$C$F$GT$$u20$as$u20$core..ops..try_trait..FromResidual$LT$core..result..Result$LT$core..convert..Infallible$C$E$GT$$GT$$GT$13from_residual17h3cda350f0a000915E, .Lfunc_end5-_ZN153_$LT$core..result..Result$LT$T$C$F$GT$$u20$as$u20$core..ops..try_trait..FromResidual$LT$core..result..Result$LT$core..convert..Infallible$C$E$GT$$GT$$GT$13from_residual17h3cda350f0a000915E
	.cfi_endproc

	.section	".text._ZN153_$LT$core..result..Result$LT$T$C$F$GT$$u20$as$u20$core..ops..try_trait..FromResidual$LT$core..result..Result$LT$core..convert..Infallible$C$E$GT$$GT$$GT$13from_residual17h5ff7abcc04553c8aE","ax",@progbits
	.p2align	4, 0x90
	.type	_ZN153_$LT$core..result..Result$LT$T$C$F$GT$$u20$as$u20$core..ops..try_trait..FromResidual$LT$core..result..Result$LT$core..convert..Infallible$C$E$GT$$GT$$GT$13from_residual17h5ff7abcc04553c8aE,@function
_ZN153_$LT$core..result..Result$LT$T$C$F$GT$$u20$as$u20$core..ops..try_trait..FromResidual$LT$core..result..Result$LT$core..convert..Infallible$C$E$GT$$GT$$GT$13from_residual17h5ff7abcc04553c8aE:
.Lfunc_begin6:
	.loc	4 1912 0
	.cfi_startproc
	subq	$72, %rsp
	.cfi_def_cfa_offset 80
	movq	%rdi, 8(%rsp)
	movq	%rdi, 16(%rsp)
	movq	%rsi, 40(%rsp)
	movq	%rdx, 48(%rsp)
.Ltmp20:
	.loc	4 1914 17 prologue_end
	movq	40(%rsp), %rdi
	movq	48(%rsp), %rsi
	movq	%rdi, 56(%rsp)
	movq	%rsi, 64(%rsp)
.Ltmp21:
	.loc	4 1914 27 is_stmt 0
	callq	_ZN122_$LT$alloc..collections..TryReserveError$u20$as$u20$core..convert..From$LT$alloc..collections..TryReserveErrorKind$GT$$GT$4from17h4631a27ab5b83ef2E
	movq	%rax, 24(%rsp)
	movq	%rdx, 32(%rsp)
	.loc	4 0 27
	movq	16(%rsp), %rax
	movq	8(%rsp), %rcx
	movq	32(%rsp), %rdx
	movq	24(%rsp), %rsi
	.loc	4 1914 23
	movq	%rsi, 8(%rcx)
	movq	%rdx, 16(%rcx)
	movq	$1, (%rcx)
.Ltmp22:
	.loc	4 1916 6 is_stmt 1
	addq	$72, %rsp
	.cfi_def_cfa_offset 8
	retq
.Ltmp23:
.Lfunc_end6:
	.size	_ZN153_$LT$core..result..Result$LT$T$C$F$GT$$u20$as$u20$core..ops..try_trait..FromResidual$LT$core..result..Result$LT$core..convert..Infallible$C$E$GT$$GT$$GT$13from_residual17h5ff7abcc04553c8aE, .Lfunc_end6-_ZN153_$LT$core..result..Result$LT$T$C$F$GT$$u20$as$u20$core..ops..try_trait..FromResidual$LT$core..result..Result$LT$core..convert..Infallible$C$E$GT$$GT$$GT$13from_residual17h5ff7abcc04553c8aE
	.cfi_endproc

	.section	".text._ZN153_$LT$core..result..Result$LT$T$C$F$GT$$u20$as$u20$core..ops..try_trait..FromResidual$LT$core..result..Result$LT$core..convert..Infallible$C$E$GT$$GT$$GT$13from_residual17h6ada0fe28c20db45E","ax",@progbits
	.p2align	4, 0x90
	.type	_ZN153_$LT$core..result..Result$LT$T$C$F$GT$$u20$as$u20$core..ops..try_trait..FromResidual$LT$core..result..Result$LT$core..convert..Infallible$C$E$GT$$GT$$GT$13from_residual17h6ada0fe28c20db45E,@function
_ZN153_$LT$core..result..Result$LT$T$C$F$GT$$u20$as$u20$core..ops..try_trait..FromResidual$LT$core..result..Result$LT$core..convert..Infallible$C$E$GT$$GT$$GT$13from_residual17h6ada0fe28c20db45E:
.Lfunc_begin7:
	.loc	4 1912 0
	.cfi_startproc
	subq	$40, %rsp
	.cfi_def_cfa_offset 48
.Ltmp24:
	.loc	4 1914 27 prologue_end
	callq	_ZN50_$LT$T$u20$as$u20$core..convert..From$LT$T$GT$$GT$4from17h04327ca40f8d73b2E
	.loc	4 1914 23 is_stmt 0
	movq	$0, 8(%rsp)
.Ltmp25:
	.loc	4 1916 6 is_stmt 1
	movq	8(%rsp), %rax
	movq	16(%rsp), %rdx
	addq	$40, %rsp
	.cfi_def_cfa_offset 8
	retq
.Ltmp26:
.Lfunc_end7:
	.size	_ZN153_$LT$core..result..Result$LT$T$C$F$GT$$u20$as$u20$core..ops..try_trait..FromResidual$LT$core..result..Result$LT$core..convert..Infallible$C$E$GT$$GT$$GT$13from_residual17h6ada0fe28c20db45E, .Lfunc_end7-_ZN153_$LT$core..result..Result$LT$T$C$F$GT$$u20$as$u20$core..ops..try_trait..FromResidual$LT$core..result..Result$LT$core..convert..Infallible$C$E$GT$$GT$$GT$13from_residual17h6ada0fe28c20db45E
	.cfi_endproc

	.section	".text._ZN153_$LT$core..result..Result$LT$T$C$F$GT$$u20$as$u20$core..ops..try_trait..FromResidual$LT$core..result..Result$LT$core..convert..Infallible$C$E$GT$$GT$$GT$13from_residual17h80810ec9823e3692E","ax",@progbits
	.p2align	4, 0x90
	.type	_ZN153_$LT$core..result..Result$LT$T$C$F$GT$$u20$as$u20$core..ops..try_trait..FromResidual$LT$core..result..Result$LT$core..convert..Infallible$C$E$GT$$GT$$GT$13from_residual17h80810ec9823e3692E,@function
_ZN153_$LT$core..result..Result$LT$T$C$F$GT$$u20$as$u20$core..ops..try_trait..FromResidual$LT$core..result..Result$LT$core..convert..Infallible$C$E$GT$$GT$$GT$13from_residual17h80810ec9823e3692E:
.Lfunc_begin8:
	.loc	4 1912 0
	.cfi_startproc
	subq	$40, %rsp
	.cfi_def_cfa_offset 48
.Ltmp27:
	.loc	4 1914 27 prologue_end
	callq	_ZN50_$LT$T$u20$as$u20$core..convert..From$LT$T$GT$$GT$4from17hd3a949194ab9e1ffE
	.loc	4 1914 23 is_stmt 0
	movq	$0, 16(%rsp)
.Ltmp28:
	.loc	4 1916 6 is_stmt 1
	movq	8(%rsp), %rax
	movq	16(%rsp), %rdx
	addq	$40, %rsp
	.cfi_def_cfa_offset 8
	retq
.Ltmp29:
.Lfunc_end8:
	.size	_ZN153_$LT$core..result..Result$LT$T$C$F$GT$$u20$as$u20$core..ops..try_trait..FromResidual$LT$core..result..Result$LT$core..convert..Infallible$C$E$GT$$GT$$GT$13from_residual17h80810ec9823e3692E, .Lfunc_end8-_ZN153_$LT$core..result..Result$LT$T$C$F$GT$$u20$as$u20$core..ops..try_trait..FromResidual$LT$core..result..Result$LT$core..convert..Infallible$C$E$GT$$GT$$GT$13from_residual17h80810ec9823e3692E
	.cfi_endproc

	.section	".text._ZN153_$LT$core..result..Result$LT$T$C$F$GT$$u20$as$u20$core..ops..try_trait..FromResidual$LT$core..result..Result$LT$core..convert..Infallible$C$E$GT$$GT$$GT$13from_residual17hf78d3187e113235dE","ax",@progbits
	.p2align	4, 0x90
	.type	_ZN153_$LT$core..result..Result$LT$T$C$F$GT$$u20$as$u20$core..ops..try_trait..FromResidual$LT$core..result..Result$LT$core..convert..Infallible$C$E$GT$$GT$$GT$13from_residual17hf78d3187e113235dE,@function
_ZN153_$LT$core..result..Result$LT$T$C$F$GT$$u20$as$u20$core..ops..try_trait..FromResidual$LT$core..result..Result$LT$core..convert..Infallible$C$E$GT$$GT$$GT$13from_residual17hf78d3187e113235dE:
.Lfunc_begin9:
	.loc	4 1912 0
	.cfi_startproc
	subq	$40, %rsp
	.cfi_def_cfa_offset 48
	movq	%rdi, 8(%rsp)
	movq	%rdi, 16(%rsp)
.Ltmp30:
	.loc	4 1914 27 prologue_end
	callq	_ZN50_$LT$T$u20$as$u20$core..convert..From$LT$T$GT$$GT$4from17hd3a949194ab9e1ffE
	.loc	4 0 27 is_stmt 0
	movq	16(%rsp), %rax
	movq	8(%rsp), %rcx
	.loc	4 1914 23
	movq	$0, 8(%rcx)
.Ltmp31:
	.loc	4 1916 6 is_stmt 1
	addq	$40, %rsp
	.cfi_def_cfa_offset 8
	retq
.Ltmp32:
.Lfunc_end9:
	.size	_ZN153_$LT$core..result..Result$LT$T$C$F$GT$$u20$as$u20$core..ops..try_trait..FromResidual$LT$core..result..Result$LT$core..convert..Infallible$C$E$GT$$GT$$GT$13from_residual17hf78d3187e113235dE, .Lfunc_end9-_ZN153_$LT$core..result..Result$LT$T$C$F$GT$$u20$as$u20$core..ops..try_trait..FromResidual$LT$core..result..Result$LT$core..convert..Infallible$C$E$GT$$GT$$GT$13from_residual17hf78d3187e113235dE
	.cfi_endproc

	.section	.text._ZN3std10sys_common9backtrace28__rust_begin_short_backtrace17h4ddaca950516f0a8E,"ax",@progbits
	.p2align	4, 0x90
	.type	_ZN3std10sys_common9backtrace28__rust_begin_short_backtrace17h4ddaca950516f0a8E,@function
_ZN3std10sys_common9backtrace28__rust_begin_short_backtrace17h4ddaca950516f0a8E:
.Lfunc_begin10:
	.file	5 "/rustc/f1edd0429582dd29cccacaf50fd134b05593bd9c/library/std/src/sys_common/backtrace.rs"
	.loc	5 119 0
	.cfi_startproc
	.cfi_personality 155, DW.ref.rust_eh_personality
	.cfi_lsda 27, .Lexception0
	subq	$40, %rsp
	.cfi_def_cfa_offset 48
	movq	%rdi, 16(%rsp)
.Ltmp36:
	.loc	5 123 18 prologue_end
	callq	_ZN4core3ops8function6FnOnce9call_once17habba289b140f3b29E
.Ltmp33:
.Ltmp37:
	.loc	5 126 5
	callq	_ZN4core4hint9black_box17h34b8ea8ed134d1ccE
.Ltmp34:
	jmp	.LBB10_2
.Ltmp38:
.LBB10_2:
	.loc	5 129 2
	addq	$40, %rsp
	.cfi_def_cfa_offset 8
	retq
.LBB10_3:
	.cfi_def_cfa_offset 48
	.loc	5 129 1 is_stmt 0
	jmp	.LBB10_5
.LBB10_4:
.Ltmp35:
	.loc	5 0 1
	movq	%rax, %rcx
	movl	%edx, %eax
	movq	%rcx, 24(%rsp)
	movl	%eax, 32(%rsp)
	jmp	.LBB10_3
.LBB10_5:
	.loc	5 119 1 is_stmt 1
	movq	24(%rsp), %rdi
	callq	_Unwind_Resume@PLT
	ud2
.Ltmp39:
.Lfunc_end10:
	.size	_ZN3std10sys_common9backtrace28__rust_begin_short_backtrace17h4ddaca950516f0a8E, .Lfunc_end10-_ZN3std10sys_common9backtrace28__rust_begin_short_backtrace17h4ddaca950516f0a8E
	.cfi_endproc
	.section	.gcc_except_table._ZN3std10sys_common9backtrace28__rust_begin_short_backtrace17h4ddaca950516f0a8E,"a",@progbits
	.p2align	2
GCC_except_table10:
.Lexception0:
	.byte	255
	.byte	255
	.byte	1
	.uleb128 .Lcst_end0-.Lcst_begin0
.Lcst_begin0:
	.uleb128 .Lfunc_begin10-.Lfunc_begin10
	.uleb128 .Ltmp33-.Lfunc_begin10
	.byte	0
	.byte	0
	.uleb128 .Ltmp33-.Lfunc_begin10
	.uleb128 .Ltmp34-.Ltmp33
	.uleb128 .Ltmp35-.Lfunc_begin10
	.byte	0
	.uleb128 .Ltmp34-.Lfunc_begin10
	.uleb128 .Lfunc_end10-.Ltmp34
	.byte	0
	.byte	0
.Lcst_end0:
	.p2align	2

	.section	.text._ZN3std2rt10lang_start17hc17d3853e5f628eeE,"ax",@progbits
	.hidden	_ZN3std2rt10lang_start17hc17d3853e5f628eeE
	.globl	_ZN3std2rt10lang_start17hc17d3853e5f628eeE
	.p2align	4, 0x90
	.type	_ZN3std2rt10lang_start17hc17d3853e5f628eeE,@function
_ZN3std2rt10lang_start17hc17d3853e5f628eeE:
.Lfunc_begin11:
	.file	6 "/rustc/f1edd0429582dd29cccacaf50fd134b05593bd9c/library/std/src/rt.rs"
	.loc	6 140 0
	.cfi_startproc
	subq	$56, %rsp
	.cfi_def_cfa_offset 64
	movq	%rdx, %rcx
	movq	%rsi, %rdx
	movq	%rdi, 24(%rsp)
	movq	%rdx, 32(%rsp)
	movq	%rcx, 40(%rsp)
.Ltmp40:
	.loc	6 146 10 prologue_end
	movq	%rdi, 16(%rsp)
	.loc	6 146 9 is_stmt 0
	leaq	16(%rsp), %rdi
	.loc	6 145 17 is_stmt 1
	leaq	.L__unnamed_1(%rip), %rsi
	callq	*_ZN3std2rt19lang_start_internal17hd15a47be08101c28E@GOTPCREL(%rip)
	movq	%rax, 8(%rsp)
	.loc	6 145 12 is_stmt 0
	movq	8(%rsp), %rax
	movq	%rax, 48(%rsp)
	.loc	6 151 2 is_stmt 1
	addq	$56, %rsp
	.cfi_def_cfa_offset 8
	retq
.Ltmp41:
.Lfunc_end11:
	.size	_ZN3std2rt10lang_start17hc17d3853e5f628eeE, .Lfunc_end11-_ZN3std2rt10lang_start17hc17d3853e5f628eeE
	.cfi_endproc

	.section	".text._ZN3std2rt10lang_start28_$u7b$$u7b$closure$u7d$$u7d$17haa5f1c46776dfb40E","ax",@progbits
	.p2align	4, 0x90
	.type	_ZN3std2rt10lang_start28_$u7b$$u7b$closure$u7d$$u7d$17haa5f1c46776dfb40E,@function
_ZN3std2rt10lang_start28_$u7b$$u7b$closure$u7d$$u7d$17haa5f1c46776dfb40E:
.Lfunc_begin12:
	.loc	6 146 0
	.cfi_startproc
	subq	$24, %rsp
	.cfi_def_cfa_offset 32
	movq	%rdi, 16(%rsp)
.Ltmp42:
	.loc	6 146 77 prologue_end
	movq	(%rdi), %rdi
	.loc	6 146 18 is_stmt 0
	callq	_ZN3std10sys_common9backtrace28__rust_begin_short_backtrace17h4ddaca950516f0a8E
	callq	_ZN54_$LT$$LP$$RP$$u20$as$u20$std..process..Termination$GT$6report17h04901c7e38715a08E
	movl	%eax, 12(%rsp)
	.loc	6 0 18
	movl	12(%rsp), %eax
	.loc	6 146 91
	addq	$24, %rsp
	.cfi_def_cfa_offset 8
	retq
.Ltmp43:
.Lfunc_end12:
	.size	_ZN3std2rt10lang_start28_$u7b$$u7b$closure$u7d$$u7d$17haa5f1c46776dfb40E, .Lfunc_end12-_ZN3std2rt10lang_start28_$u7b$$u7b$closure$u7d$$u7d$17haa5f1c46776dfb40E
	.cfi_endproc

	.section	.text._ZN3std3sys4unix7process14process_common8ExitCode6as_i3217hcf553bdddec385e5E,"ax",@progbits
	.p2align	4, 0x90
	.type	_ZN3std3sys4unix7process14process_common8ExitCode6as_i3217hcf553bdddec385e5E,@function
_ZN3std3sys4unix7process14process_common8ExitCode6as_i3217hcf553bdddec385e5E:
.Lfunc_begin13:
	.file	7 "/rustc/f1edd0429582dd29cccacaf50fd134b05593bd9c/library/std/src/sys/unix/process/process_common.rs"
	.loc	7 474 0 is_stmt 1
	.cfi_startproc
	pushq	%rax
	.cfi_def_cfa_offset 16
	movq	%rdi, (%rsp)
.Ltmp44:
	.loc	7 475 9 prologue_end
	movzbl	(%rdi), %eax
	.loc	7 476 6
	popq	%rcx
	.cfi_def_cfa_offset 8
	retq
.Ltmp45:
.Lfunc_end13:
	.size	_ZN3std3sys4unix7process14process_common8ExitCode6as_i3217hcf553bdddec385e5E, .Lfunc_end13-_ZN3std3sys4unix7process14process_common8ExitCode6as_i3217hcf553bdddec385e5E
	.cfi_endproc

	.section	.text._ZN4core10intrinsics11write_bytes17h99a8b8aec4b8ab2cE,"ax",@progbits
	.p2align	4, 0x90
	.type	_ZN4core10intrinsics11write_bytes17h99a8b8aec4b8ab2cE,@function
_ZN4core10intrinsics11write_bytes17h99a8b8aec4b8ab2cE:
.Lfunc_begin14:
	.file	8 "/rustc/f1edd0429582dd29cccacaf50fd134b05593bd9c/library/core/src/intrinsics.rs"
	.loc	8 2214 0
	.cfi_startproc
	subq	$24, %rsp
	.cfi_def_cfa_offset 32
	movb	%sil, %al
	movq	%rdi, (%rsp)
	movb	%al, 15(%rsp)
	movq	%rdx, 16(%rsp)
.Ltmp46:
	.loc	8 2222 14 prologue_end
	shlq	$0, %rdx
	movzbl	%al, %esi
	callq	memset@PLT
	.loc	8 2223 2
	addq	$24, %rsp
	.cfi_def_cfa_offset 8
	retq
.Ltmp47:
.Lfunc_end14:
	.size	_ZN4core10intrinsics11write_bytes17h99a8b8aec4b8ab2cE, .Lfunc_end14-_ZN4core10intrinsics11write_bytes17h99a8b8aec4b8ab2cE
	.cfi_endproc

	.section	.text._ZN4core10intrinsics19copy_nonoverlapping17hfa1234651dbe88a5E,"ax",@progbits
	.p2align	4, 0x90
	.type	_ZN4core10intrinsics19copy_nonoverlapping17hfa1234651dbe88a5E,@function
_ZN4core10intrinsics19copy_nonoverlapping17hfa1234651dbe88a5E:
.Lfunc_begin15:
	.loc	8 2039 0
	.cfi_startproc
	subq	$40, %rsp
	.cfi_def_cfa_offset 48
	movq	%rsi, 8(%rsp)
	movq	%rdi, %rsi
	movq	8(%rsp), %rdi
	movq	%rsi, 16(%rsp)
	movq	%rdi, 24(%rsp)
	movq	%rdx, 32(%rsp)
.Ltmp48:
	.loc	8 2057 14 prologue_end
	shlq	$0, %rdx
	callq	memcpy@PLT
	.loc	8 2058 2
	addq	$40, %rsp
	.cfi_def_cfa_offset 8
	retq
.Ltmp49:
.Lfunc_end15:
	.size	_ZN4core10intrinsics19copy_nonoverlapping17hfa1234651dbe88a5E, .Lfunc_end15-_ZN4core10intrinsics19copy_nonoverlapping17hfa1234651dbe88a5E
	.cfi_endproc

	.section	.text._ZN4core3cmp3Ord3max17h8952ddaba1979b0aE,"ax",@progbits
	.p2align	4, 0x90
	.type	_ZN4core3cmp3Ord3max17h8952ddaba1979b0aE,@function
_ZN4core3cmp3Ord3max17h8952ddaba1979b0aE:
.Lfunc_begin16:
	.file	9 "/rustc/f1edd0429582dd29cccacaf50fd134b05593bd9c/library/core/src/cmp.rs"
	.loc	9 767 0
	.cfi_startproc
	subq	$24, %rsp
	.cfi_def_cfa_offset 32
	movq	%rdi, 8(%rsp)
	movq	%rsi, 16(%rsp)
.Ltmp50:
	.loc	9 771 9 prologue_end
	callq	_ZN4core3cmp6max_by17h33439b8ee68d26acE
	movq	%rax, (%rsp)
	.loc	9 0 9 is_stmt 0
	movq	(%rsp), %rax
	.loc	9 772 6 is_stmt 1
	addq	$24, %rsp
	.cfi_def_cfa_offset 8
	retq
.Ltmp51:
.Lfunc_end16:
	.size	_ZN4core3cmp3Ord3max17h8952ddaba1979b0aE, .Lfunc_end16-_ZN4core3cmp3Ord3max17h8952ddaba1979b0aE
	.cfi_endproc

	.section	.text._ZN4core3cmp3max17h0c043323229d290bE,"ax",@progbits
	.p2align	4, 0x90
	.type	_ZN4core3cmp3max17h0c043323229d290bE,@function
_ZN4core3cmp3max17h0c043323229d290bE:
.Lfunc_begin17:
	.loc	9 1188 0
	.cfi_startproc
	subq	$24, %rsp
	.cfi_def_cfa_offset 32
	movq	%rdi, 8(%rsp)
	movq	%rsi, 16(%rsp)
.Ltmp52:
	.loc	9 1189 5 prologue_end
	callq	_ZN4core3cmp3Ord3max17h8952ddaba1979b0aE
	movq	%rax, (%rsp)
	.loc	9 0 5 is_stmt 0
	movq	(%rsp), %rax
	.loc	9 1190 2 is_stmt 1
	addq	$24, %rsp
	.cfi_def_cfa_offset 8
	retq
.Ltmp53:
.Lfunc_end17:
	.size	_ZN4core3cmp3max17h0c043323229d290bE, .Lfunc_end17-_ZN4core3cmp3max17h0c043323229d290bE
	.cfi_endproc

	.section	".text._ZN4core3cmp5impls50_$LT$impl$u20$core..cmp..Ord$u20$for$u20$usize$GT$3cmp17h77b8efd614594889E","ax",@progbits
	.p2align	4, 0x90
	.type	_ZN4core3cmp5impls50_$LT$impl$u20$core..cmp..Ord$u20$for$u20$usize$GT$3cmp17h77b8efd614594889E,@function
_ZN4core3cmp5impls50_$LT$impl$u20$core..cmp..Ord$u20$for$u20$usize$GT$3cmp17h77b8efd614594889E:
.Lfunc_begin18:
	.loc	9 1339 0
	.cfi_startproc
	subq	$40, %rsp
	.cfi_def_cfa_offset 48
	movq	%rdi, (%rsp)
	movq	%rsi, 8(%rsp)
	movq	%rdi, 24(%rsp)
	movq	%rsi, 32(%rsp)
.Ltmp54:
	.loc	9 1342 24 prologue_end
	movq	(%rdi), %rax
	cmpq	(%rsi), %rax
	jb	.LBB18_2
	.loc	9 0 24 is_stmt 0
	movq	8(%rsp), %rcx
	movq	(%rsp), %rax
	.loc	9 1343 29 is_stmt 1
	movq	(%rax), %rax
	cmpq	(%rcx), %rax
	je	.LBB18_5
	jmp	.LBB18_4
.LBB18_2:
	.loc	9 1342 41
	movb	$-1, 23(%rsp)
.LBB18_3:
	.loc	9 1345 18
	movb	23(%rsp), %al
	addq	$40, %rsp
	.cfi_def_cfa_offset 8
	retq
.LBB18_4:
	.cfi_def_cfa_offset 48
	.loc	9 1344 28
	movb	$1, 23(%rsp)
	.loc	9 1343 26
	jmp	.LBB18_6
.LBB18_5:
	.loc	9 1343 47 is_stmt 0
	movb	$0, 23(%rsp)
.LBB18_6:
	.loc	9 1342 21 is_stmt 1
	jmp	.LBB18_3
.Ltmp55:
.Lfunc_end18:
	.size	_ZN4core3cmp5impls50_$LT$impl$u20$core..cmp..Ord$u20$for$u20$usize$GT$3cmp17h77b8efd614594889E, .Lfunc_end18-_ZN4core3cmp5impls50_$LT$impl$u20$core..cmp..Ord$u20$for$u20$usize$GT$3cmp17h77b8efd614594889E
	.cfi_endproc

	.section	.text._ZN4core3cmp6max_by17h33439b8ee68d26acE,"ax",@progbits
	.p2align	4, 0x90
	.type	_ZN4core3cmp6max_by17h33439b8ee68d26acE,@function
_ZN4core3cmp6max_by17h33439b8ee68d26acE:
.Lfunc_begin19:
	.loc	9 1207 0
	.cfi_startproc
	.cfi_personality 155, DW.ref.rust_eh_personality
	.cfi_lsda 27, .Lexception1
	subq	$88, %rsp
	.cfi_def_cfa_offset 96
	movq	%rdi, 8(%rsp)
	movq	%rsi, 16(%rsp)
.Ltmp59:
	.loc	9 1208 11 prologue_end
	movb	$0, 63(%rsp)
	movb	$0, 62(%rsp)
	movb	$1, 63(%rsp)
	movb	$1, 62(%rsp)
	leaq	8(%rsp), %rax
	movq	%rax, 40(%rsp)
	leaq	16(%rsp), %rax
	movq	%rax, 48(%rsp)
	movq	40(%rsp), %rdi
	movq	48(%rsp), %rsi
.Ltmp56:
	callq	_ZN4core3ops8function6FnOnce9call_once17h2a8bac4fef1f3b54E
.Ltmp57:
	movb	%al, 7(%rsp)
	jmp	.LBB19_1
.LBB19_1:
	.loc	9 0 11 is_stmt 0
	movb	7(%rsp), %al
	.loc	9 1208 11
	movb	%al, 39(%rsp)
	movb	39(%rsp), %al
	.loc	9 1208 5
	addb	$1, %al
	subb	$2, %al
	jb	.LBB19_6
	jmp	.LBB19_15
.LBB19_15:
	jmp	.LBB19_7
.LBB19_2:
	.loc	9 1212 1 is_stmt 1
	jmp	.LBB19_4
.LBB19_3:
.Ltmp58:
	.loc	9 0 1 is_stmt 0
	movq	%rax, %rcx
	movl	%edx, %eax
	movq	%rcx, 72(%rsp)
	movl	%eax, 80(%rsp)
	jmp	.LBB19_2
.LBB19_4:
	.loc	9 1212 1
	testb	$1, 63(%rsp)
	jne	.LBB19_12
	jmp	.LBB19_11
	.cfi_def_cfa_offset 8
	.loc	9 1208 11 is_stmt 1
	ud2
.LBB19_6:
	.cfi_def_cfa_offset 96
	.loc	9 1209 45
	movb	$0, 62(%rsp)
	movq	16(%rsp), %rax
	movq	%rax, 24(%rsp)
	jmp	.LBB19_8
.LBB19_7:
	.loc	9 1210 30
	movb	$0, 63(%rsp)
	movq	8(%rsp), %rax
	movq	%rax, 24(%rsp)
.LBB19_8:
	.loc	9 1212 1
	testb	$1, 62(%rsp)
	jne	.LBB19_10
.LBB19_9:
	testb	$1, 63(%rsp)
	jne	.LBB19_14
	jmp	.LBB19_13
.LBB19_10:
	jmp	.LBB19_9
.LBB19_11:
	.loc	9 1207 1
	movq	72(%rsp), %rdi
	callq	_Unwind_Resume@PLT
	ud2
.LBB19_12:
	.loc	9 1212 1
	jmp	.LBB19_11
.LBB19_13:
	.loc	9 1212 2 is_stmt 0
	movq	24(%rsp), %rax
	addq	$88, %rsp
	.cfi_def_cfa_offset 8
	retq
.LBB19_14:
	.cfi_def_cfa_offset 96
	.loc	9 1212 1
	jmp	.LBB19_13
.Ltmp60:
.Lfunc_end19:
	.size	_ZN4core3cmp6max_by17h33439b8ee68d26acE, .Lfunc_end19-_ZN4core3cmp6max_by17h33439b8ee68d26acE
	.cfi_endproc
	.section	.gcc_except_table._ZN4core3cmp6max_by17h33439b8ee68d26acE,"a",@progbits
	.p2align	2
GCC_except_table19:
.Lexception1:
	.byte	255
	.byte	255
	.byte	1
	.uleb128 .Lcst_end1-.Lcst_begin1
.Lcst_begin1:
	.uleb128 .Ltmp56-.Lfunc_begin19
	.uleb128 .Ltmp57-.Ltmp56
	.uleb128 .Ltmp58-.Lfunc_begin19
	.byte	0
	.uleb128 .Ltmp57-.Lfunc_begin19
	.uleb128 .Lfunc_end19-.Ltmp57
	.byte	0
	.byte	0
.Lcst_end1:
	.p2align	2

	.section	.text._ZN4core3fmt10ArgumentV13new17h8dbfa333aeb7ec0cE,"ax",@progbits
	.p2align	4, 0x90
	.type	_ZN4core3fmt10ArgumentV13new17h8dbfa333aeb7ec0cE,@function
_ZN4core3fmt10ArgumentV13new17h8dbfa333aeb7ec0cE:
.Lfunc_begin20:
	.file	10 "/rustc/f1edd0429582dd29cccacaf50fd134b05593bd9c/library/core/src/fmt/mod.rs"
	.loc	10 314 0 is_stmt 1
	.cfi_startproc
	subq	$72, %rsp
	.cfi_def_cfa_offset 80
	movq	%rdi, 8(%rsp)
	movq	%rdi, 40(%rsp)
	movq	%rsi, 48(%rsp)
.Ltmp61:
	.loc	10 323 42 prologue_end
	movq	%rsi, 56(%rsp)
	movq	56(%rsp), %rax
	movq	%rax, 16(%rsp)
	.loc	10 0 42 is_stmt 0
	movq	8(%rsp), %rax
	.loc	10 323 68
	movq	%rax, 64(%rsp)
	movq	64(%rsp), %rax
	movq	%rax, (%rsp)
	.loc	10 0 68
	movq	16(%rsp), %rax
	movq	(%rsp), %rcx
	.loc	10 323 18
	movq	%rcx, 24(%rsp)
	movq	%rax, 32(%rsp)
	.loc	10 324 6 is_stmt 1
	movq	24(%rsp), %rax
	movq	32(%rsp), %rdx
	addq	$72, %rsp
	.cfi_def_cfa_offset 8
	retq
.Ltmp62:
.Lfunc_end20:
	.size	_ZN4core3fmt10ArgumentV13new17h8dbfa333aeb7ec0cE, .Lfunc_end20-_ZN4core3fmt10ArgumentV13new17h8dbfa333aeb7ec0cE
	.cfi_endproc

	.section	.text._ZN4core3fmt10ArgumentV13new17hdaced6dfeb165622E,"ax",@progbits
	.p2align	4, 0x90
	.type	_ZN4core3fmt10ArgumentV13new17hdaced6dfeb165622E,@function
_ZN4core3fmt10ArgumentV13new17hdaced6dfeb165622E:
.Lfunc_begin21:
	.loc	10 314 0
	.cfi_startproc
	subq	$72, %rsp
	.cfi_def_cfa_offset 80
	movq	%rdi, 8(%rsp)
	movq	%rdi, 40(%rsp)
	movq	%rsi, 48(%rsp)
.Ltmp63:
	.loc	10 323 42 prologue_end
	movq	%rsi, 56(%rsp)
	movq	56(%rsp), %rax
	movq	%rax, 16(%rsp)
	.loc	10 0 42 is_stmt 0
	movq	8(%rsp), %rax
	.loc	10 323 68
	movq	%rax, 64(%rsp)
	movq	64(%rsp), %rax
	movq	%rax, (%rsp)
	.loc	10 0 68
	movq	16(%rsp), %rax
	movq	(%rsp), %rcx
	.loc	10 323 18
	movq	%rcx, 24(%rsp)
	movq	%rax, 32(%rsp)
	.loc	10 324 6 is_stmt 1
	movq	24(%rsp), %rax
	movq	32(%rsp), %rdx
	addq	$72, %rsp
	.cfi_def_cfa_offset 8
	retq
.Ltmp64:
.Lfunc_end21:
	.size	_ZN4core3fmt10ArgumentV13new17hdaced6dfeb165622E, .Lfunc_end21-_ZN4core3fmt10ArgumentV13new17hdaced6dfeb165622E
	.cfi_endproc

	.section	.text._ZN4core3fmt10ArgumentV13new17hedf4b86af40a3ff6E,"ax",@progbits
	.p2align	4, 0x90
	.type	_ZN4core3fmt10ArgumentV13new17hedf4b86af40a3ff6E,@function
_ZN4core3fmt10ArgumentV13new17hedf4b86af40a3ff6E:
.Lfunc_begin22:
	.loc	10 314 0
	.cfi_startproc
	subq	$72, %rsp
	.cfi_def_cfa_offset 80
	movq	%rdi, 8(%rsp)
	movq	%rdi, 40(%rsp)
	movq	%rsi, 48(%rsp)
.Ltmp65:
	.loc	10 323 42 prologue_end
	movq	%rsi, 56(%rsp)
	movq	56(%rsp), %rax
	movq	%rax, 16(%rsp)
	.loc	10 0 42 is_stmt 0
	movq	8(%rsp), %rax
	.loc	10 323 68
	movq	%rax, 64(%rsp)
	movq	64(%rsp), %rax
	movq	%rax, (%rsp)
	.loc	10 0 68
	movq	16(%rsp), %rax
	movq	(%rsp), %rcx
	.loc	10 323 18
	movq	%rcx, 24(%rsp)
	movq	%rax, 32(%rsp)
	.loc	10 324 6 is_stmt 1
	movq	24(%rsp), %rax
	movq	32(%rsp), %rdx
	addq	$72, %rsp
	.cfi_def_cfa_offset 8
	retq
.Ltmp66:
.Lfunc_end22:
	.size	_ZN4core3fmt10ArgumentV13new17hedf4b86af40a3ff6E, .Lfunc_end22-_ZN4core3fmt10ArgumentV13new17hedf4b86af40a3ff6E
	.cfi_endproc

	.section	.text._ZN4core3fmt9Arguments6new_v117h81bcee39519af014E,"ax",@progbits
	.p2align	4, 0x90
	.type	_ZN4core3fmt9Arguments6new_v117h81bcee39519af014E,@function
_ZN4core3fmt9Arguments6new_v117h81bcee39519af014E:
.Lfunc_begin23:
	.loc	10 361 0
	.cfi_startproc
	subq	$104, %rsp
	.cfi_def_cfa_offset 112
	movq	%r8, (%rsp)
	movq	%rcx, 8(%rsp)
	movq	%rdx, 16(%rsp)
	movq	%rsi, 24(%rsp)
	movq	%rdi, 32(%rsp)
	movq	%rdi, 40(%rsp)
	movq	%rsi, 72(%rsp)
	movq	%rdx, 80(%rsp)
	movq	%rcx, 88(%rsp)
	movq	%r8, 96(%rsp)
.Ltmp67:
	.loc	10 362 12 prologue_end
	cmpq	%r8, %rdx
	jb	.LBB23_2
	.loc	10 0 12 is_stmt 0
	movq	16(%rsp), %rax
	movq	(%rsp), %rcx
	.loc	10 362 56
	addq	$1, %rcx
	.loc	10 362 41
	cmpq	%rcx, %rax
	seta	%al
	.loc	10 362 12
	andb	$1, %al
	movb	%al, 55(%rsp)
	jmp	.LBB23_3
.LBB23_2:
	movb	$1, 55(%rsp)
.LBB23_3:
	testb	$1, 55(%rsp)
	jne	.LBB23_5
	.loc	10 0 12
	movq	40(%rsp), %rax
	movq	32(%rsp), %rcx
	movq	(%rsp), %rdx
	movq	8(%rsp), %rsi
	movq	16(%rsp), %rdi
	movq	24(%rsp), %r8
	.loc	10 365 34 is_stmt 1
	movq	$0, 56(%rsp)
	.loc	10 365 9 is_stmt 0
	movq	%r8, (%rcx)
	movq	%rdi, 8(%rcx)
	movq	56(%rsp), %r8
	movq	64(%rsp), %rdi
	movq	%r8, 16(%rcx)
	movq	%rdi, 24(%rcx)
	movq	%rsi, 32(%rcx)
	movq	%rdx, 40(%rcx)
	.loc	10 366 6 is_stmt 1
	addq	$104, %rsp
	.cfi_def_cfa_offset 8
	retq
.LBB23_5:
	.cfi_def_cfa_offset 112
	.loc	10 363 13
	leaq	.L__unnamed_3(%rip), %rdi
	leaq	.L__unnamed_4(%rip), %rdx
	movq	_ZN4core9panicking5panic17h0ba7146865b2f9d6E@GOTPCREL(%rip), %rax
	movl	$12, %esi
	callq	*%rax
	ud2
.Ltmp68:
.Lfunc_end23:
	.size	_ZN4core3fmt9Arguments6new_v117h81bcee39519af014E, .Lfunc_end23-_ZN4core3fmt9Arguments6new_v117h81bcee39519af014E
	.cfi_endproc

	.section	".text._ZN4core3num23_$LT$impl$u20$usize$GT$11checked_add17h2a702825d3f75cfeE","ax",@progbits
	.p2align	4, 0x90
	.type	_ZN4core3num23_$LT$impl$u20$usize$GT$11checked_add17h2a702825d3f75cfeE,@function
_ZN4core3num23_$LT$impl$u20$usize$GT$11checked_add17h2a702825d3f75cfeE:
.Lfunc_begin24:
	.file	11 "/rustc/f1edd0429582dd29cccacaf50fd134b05593bd9c/library/core/src/num/uint_macros.rs"
	.loc	11 436 0
	.cfi_startproc
	subq	$136, %rsp
	.cfi_def_cfa_offset 144
	movq	%rdi, 40(%rsp)
	movq	%rsi, 48(%rsp)
	movq	%rdi, 88(%rsp)
	movq	%rsi, 96(%rsp)
.Ltmp69:
	.loc	11 1502 26 prologue_end
	addq	%rsi, %rdi
	movq	%rdi, 104(%rsp)
	setb	112(%rsp)
	movq	104(%rsp), %rcx
	movb	112(%rsp), %al
	.loc	11 1502 18 is_stmt 0
	movq	%rcx, 120(%rsp)
	.loc	11 1502 21
	movb	%al, 135(%rsp)
.Ltmp70:
	.loc	11 1503 13 is_stmt 1
	movq	%rcx, 72(%rsp)
	movb	%al, 80(%rsp)
.Ltmp71:
	.loc	11 1504 10
	movq	72(%rsp), %rax
	movq	%rax, 8(%rsp)
	movb	80(%rsp), %al
	movb	%al, 23(%rsp)
.Ltmp72:
	.loc	11 0 10 is_stmt 0
	movb	23(%rsp), %al
	movq	8(%rsp), %rcx
	.loc	11 437 18 is_stmt 1
	movq	%rcx, 56(%rsp)
	.loc	11 437 21 is_stmt 0
	movb	%al, %cl
	andb	$1, %cl
	movb	%cl, 70(%rsp)
.Ltmp73:
	.loc	11 438 16 is_stmt 1
	andb	$1, %al
	movb	%al, 71(%rsp)
	movb	71(%rsp), %al
	movb	%al, 7(%rsp)
	.loc	11 0 16 is_stmt 0
	movb	7(%rsp), %al
	.loc	11 438 16
	testb	$1, %al
	jne	.LBB24_4
	jmp	.LBB24_3
.LBB24_3:
	.loc	11 0 16
	movq	8(%rsp), %rax
	.loc	11 438 42
	movq	%rax, 32(%rsp)
	movq	$1, 24(%rsp)
	.loc	11 438 13
	jmp	.LBB24_5
.LBB24_4:
	.loc	11 438 30
	movq	$0, 24(%rsp)
.Ltmp74:
.LBB24_5:
	.loc	11 439 10 is_stmt 1
	movq	24(%rsp), %rax
	movq	32(%rsp), %rdx
	addq	$136, %rsp
	.cfi_def_cfa_offset 8
	retq
.Ltmp75:
.Lfunc_end24:
	.size	_ZN4core3num23_$LT$impl$u20$usize$GT$11checked_add17h2a702825d3f75cfeE, .Lfunc_end24-_ZN4core3num23_$LT$impl$u20$usize$GT$11checked_add17h2a702825d3f75cfeE
	.cfi_endproc

	.section	".text._ZN4core3num23_$LT$impl$u20$usize$GT$11checked_mul17h61a6ff353c3d2d0fE","ax",@progbits
	.p2align	4, 0x90
	.type	_ZN4core3num23_$LT$impl$u20$usize$GT$11checked_mul17h61a6ff353c3d2d0fE,@function
_ZN4core3num23_$LT$impl$u20$usize$GT$11checked_mul17h61a6ff353c3d2d0fE:
.Lfunc_begin25:
	.loc	11 551 0
	.cfi_startproc
	subq	$136, %rsp
	.cfi_def_cfa_offset 144
	movq	%rdi, %rax
	movq	%rax, 40(%rsp)
	movq	%rsi, 48(%rsp)
	movq	%rax, 88(%rsp)
	movq	%rsi, 96(%rsp)
.Ltmp76:
	.loc	11 1669 26 prologue_end
	mulq	%rsi
	movq	%rax, 104(%rsp)
	seto	112(%rsp)
	movq	104(%rsp), %rcx
	movb	112(%rsp), %al
	.loc	11 1669 18 is_stmt 0
	movq	%rcx, 120(%rsp)
	.loc	11 1669 21
	movb	%al, 135(%rsp)
.Ltmp77:
	.loc	11 1670 13 is_stmt 1
	movq	%rcx, 72(%rsp)
	movb	%al, 80(%rsp)
.Ltmp78:
	.loc	11 1671 10
	movq	72(%rsp), %rax
	movq	%rax, 8(%rsp)
	movb	80(%rsp), %al
	movb	%al, 23(%rsp)
.Ltmp79:
	.loc	11 0 10 is_stmt 0
	movb	23(%rsp), %al
	movq	8(%rsp), %rcx
	.loc	11 552 18 is_stmt 1
	movq	%rcx, 56(%rsp)
	.loc	11 552 21 is_stmt 0
	movb	%al, %cl
	andb	$1, %cl
	movb	%cl, 70(%rsp)
.Ltmp80:
	.loc	11 553 16 is_stmt 1
	andb	$1, %al
	movb	%al, 71(%rsp)
	movb	71(%rsp), %al
	movb	%al, 7(%rsp)
	.loc	11 0 16 is_stmt 0
	movb	7(%rsp), %al
	.loc	11 553 16
	testb	$1, %al
	jne	.LBB25_4
	jmp	.LBB25_3
.LBB25_3:
	.loc	11 0 16
	movq	8(%rsp), %rax
	.loc	11 553 42
	movq	%rax, 32(%rsp)
	movq	$1, 24(%rsp)
	.loc	11 553 13
	jmp	.LBB25_5
.LBB25_4:
	.loc	11 553 30
	movq	$0, 24(%rsp)
.Ltmp81:
.LBB25_5:
	.loc	11 554 10 is_stmt 1
	movq	24(%rsp), %rax
	movq	32(%rsp), %rdx
	addq	$136, %rsp
	.cfi_def_cfa_offset 8
	retq
.Ltmp82:
.Lfunc_end25:
	.size	_ZN4core3num23_$LT$impl$u20$usize$GT$11checked_mul17h61a6ff353c3d2d0fE, .Lfunc_end25-_ZN4core3num23_$LT$impl$u20$usize$GT$11checked_mul17h61a6ff353c3d2d0fE
	.cfi_endproc

	.section	.text._ZN4core3num7nonzero12NonZeroUsize13new_unchecked17hf0752a2abb10496eE,"ax",@progbits
	.p2align	4, 0x90
	.type	_ZN4core3num7nonzero12NonZeroUsize13new_unchecked17hf0752a2abb10496eE,@function
_ZN4core3num7nonzero12NonZeroUsize13new_unchecked17hf0752a2abb10496eE:
.Lfunc_begin26:
	.file	12 "/rustc/f1edd0429582dd29cccacaf50fd134b05593bd9c/library/core/src/num/nonzero.rs"
	.loc	12 55 0
	.cfi_startproc
	subq	$16, %rsp
	.cfi_def_cfa_offset 24
	movq	%rdi, 8(%rsp)
.Ltmp83:
	.loc	12 57 30 prologue_end
	movq	%rdi, (%rsp)
	.loc	12 58 18
	movq	(%rsp), %rax
	addq	$16, %rsp
	.cfi_def_cfa_offset 8
	retq
.Ltmp84:
.Lfunc_end26:
	.size	_ZN4core3num7nonzero12NonZeroUsize13new_unchecked17hf0752a2abb10496eE, .Lfunc_end26-_ZN4core3num7nonzero12NonZeroUsize13new_unchecked17hf0752a2abb10496eE
	.cfi_endproc

	.section	.text._ZN4core3num7nonzero12NonZeroUsize3get17hc8dccf9bdb187044E,"ax",@progbits
	.p2align	4, 0x90
	.type	_ZN4core3num7nonzero12NonZeroUsize3get17hc8dccf9bdb187044E,@function
_ZN4core3num7nonzero12NonZeroUsize3get17hc8dccf9bdb187044E:
.Lfunc_begin27:
	.loc	12 78 0
	.cfi_startproc
	pushq	%rax
	.cfi_def_cfa_offset 16
	movq	%rdi, %rax
	movq	%rax, (%rsp)
.Ltmp85:
	.loc	12 80 18 prologue_end
	popq	%rcx
	.cfi_def_cfa_offset 8
	retq
.Ltmp86:
.Lfunc_end27:
	.size	_ZN4core3num7nonzero12NonZeroUsize3get17hc8dccf9bdb187044E, .Lfunc_end27-_ZN4core3num7nonzero12NonZeroUsize3get17hc8dccf9bdb187044E
	.cfi_endproc

	.section	".text._ZN4core3ops8function6FnOnce40call_once$u7b$$u7b$vtable.shim$u7d$$u7d$17hc91d35e4b9b38ee6E","ax",@progbits
	.p2align	4, 0x90
	.type	_ZN4core3ops8function6FnOnce40call_once$u7b$$u7b$vtable.shim$u7d$$u7d$17hc91d35e4b9b38ee6E,@function
_ZN4core3ops8function6FnOnce40call_once$u7b$$u7b$vtable.shim$u7d$$u7d$17hc91d35e4b9b38ee6E:
.Lfunc_begin28:
	.file	13 "/rustc/f1edd0429582dd29cccacaf50fd134b05593bd9c/library/core/src/ops/function.rs"
	.loc	13 227 0
	.cfi_startproc
	subq	$24, %rsp
	.cfi_def_cfa_offset 32
	movq	%rdi, 16(%rsp)
.Ltmp87:
	.loc	13 227 5 prologue_end
	movq	(%rdi), %rdi
	callq	_ZN4core3ops8function6FnOnce9call_once17h41633c202468b4d6E
	movl	%eax, 4(%rsp)
	.loc	13 0 5 is_stmt 0
	movl	4(%rsp), %eax
	.loc	13 227 5
	addq	$24, %rsp
	.cfi_def_cfa_offset 8
	retq
.Ltmp88:
.Lfunc_end28:
	.size	_ZN4core3ops8function6FnOnce40call_once$u7b$$u7b$vtable.shim$u7d$$u7d$17hc91d35e4b9b38ee6E, .Lfunc_end28-_ZN4core3ops8function6FnOnce40call_once$u7b$$u7b$vtable.shim$u7d$$u7d$17hc91d35e4b9b38ee6E
	.cfi_endproc

	.section	.text._ZN4core3ops8function6FnOnce9call_once17h2a8bac4fef1f3b54E,"ax",@progbits
	.p2align	4, 0x90
	.type	_ZN4core3ops8function6FnOnce9call_once17h2a8bac4fef1f3b54E,@function
_ZN4core3ops8function6FnOnce9call_once17h2a8bac4fef1f3b54E:
.Lfunc_begin29:
	.loc	13 227 0 is_stmt 1
	.cfi_startproc
	subq	$40, %rsp
	.cfi_def_cfa_offset 48
	movq	%rdi, 16(%rsp)
	movq	%rsi, 24(%rsp)
.Ltmp89:
	.loc	13 227 5 prologue_end
	movq	16(%rsp), %rdi
	movq	24(%rsp), %rsi
	callq	_ZN4core3cmp5impls50_$LT$impl$u20$core..cmp..Ord$u20$for$u20$usize$GT$3cmp17h77b8efd614594889E
	movb	%al, 15(%rsp)
	.loc	13 0 5 is_stmt 0
	movb	15(%rsp), %al
	.loc	13 227 5
	addq	$40, %rsp
	.cfi_def_cfa_offset 8
	retq
.Ltmp90:
.Lfunc_end29:
	.size	_ZN4core3ops8function6FnOnce9call_once17h2a8bac4fef1f3b54E, .Lfunc_end29-_ZN4core3ops8function6FnOnce9call_once17h2a8bac4fef1f3b54E
	.cfi_endproc

	.section	.text._ZN4core3ops8function6FnOnce9call_once17h41633c202468b4d6E,"ax",@progbits
	.p2align	4, 0x90
	.type	_ZN4core3ops8function6FnOnce9call_once17h41633c202468b4d6E,@function
_ZN4core3ops8function6FnOnce9call_once17h41633c202468b4d6E:
.Lfunc_begin30:
	.loc	13 227 0 is_stmt 1
	.cfi_startproc
	.cfi_personality 155, DW.ref.rust_eh_personality
	.cfi_lsda 27, .Lexception2
	subq	$40, %rsp
	.cfi_def_cfa_offset 48
	movq	%rdi, 8(%rsp)
.Ltmp91:
	leaq	8(%rsp), %rdi
.Ltmp94:
	.loc	13 227 5 prologue_end
	callq	_ZN3std2rt10lang_start28_$u7b$$u7b$closure$u7d$$u7d$17haa5f1c46776dfb40E
.Ltmp92:
	movl	%eax, 4(%rsp)
	jmp	.LBB30_1
.LBB30_1:
	jmp	.LBB30_5
.LBB30_2:
	jmp	.LBB30_4
.LBB30_3:
.Ltmp93:
	.loc	13 0 5 is_stmt 0
	movq	%rax, %rcx
	movl	%edx, %eax
	movq	%rcx, 24(%rsp)
	movl	%eax, 32(%rsp)
	jmp	.LBB30_2
.LBB30_4:
	.loc	13 227 5
	movq	24(%rsp), %rdi
	callq	_Unwind_Resume@PLT
	ud2
.LBB30_5:
	.loc	13 0 5
	movl	4(%rsp), %eax
	.loc	13 227 5
	addq	$40, %rsp
	.cfi_def_cfa_offset 8
	retq
.Ltmp95:
.Lfunc_end30:
	.size	_ZN4core3ops8function6FnOnce9call_once17h41633c202468b4d6E, .Lfunc_end30-_ZN4core3ops8function6FnOnce9call_once17h41633c202468b4d6E
	.cfi_endproc
	.section	.gcc_except_table._ZN4core3ops8function6FnOnce9call_once17h41633c202468b4d6E,"a",@progbits
	.p2align	2
GCC_except_table30:
.Lexception2:
	.byte	255
	.byte	255
	.byte	1
	.uleb128 .Lcst_end2-.Lcst_begin2
.Lcst_begin2:
	.uleb128 .Ltmp91-.Lfunc_begin30
	.uleb128 .Ltmp92-.Ltmp91
	.uleb128 .Ltmp93-.Lfunc_begin30
	.byte	0
	.uleb128 .Ltmp92-.Lfunc_begin30
	.uleb128 .Lfunc_end30-.Ltmp92
	.byte	0
	.byte	0
.Lcst_end2:
	.p2align	2

	.section	.text._ZN4core3ops8function6FnOnce9call_once17habba289b140f3b29E,"ax",@progbits
	.p2align	4, 0x90
	.type	_ZN4core3ops8function6FnOnce9call_once17habba289b140f3b29E,@function
_ZN4core3ops8function6FnOnce9call_once17habba289b140f3b29E:
.Lfunc_begin31:
	.loc	13 227 0 is_stmt 1
	.cfi_startproc
	subq	$24, %rsp
	.cfi_def_cfa_offset 32
	movq	%rdi, 16(%rsp)
.Ltmp96:
	.loc	13 227 5 prologue_end
	callq	*%rdi
	addq	$24, %rsp
	.cfi_def_cfa_offset 8
	retq
.Ltmp97:
.Lfunc_end31:
	.size	_ZN4core3ops8function6FnOnce9call_once17habba289b140f3b29E, .Lfunc_end31-_ZN4core3ops8function6FnOnce9call_once17habba289b140f3b29E
	.cfi_endproc

	.section	.text._ZN4core3ptr20slice_from_raw_parts17h73fc8a3e98dcb71dE,"ax",@progbits
	.p2align	4, 0x90
	.type	_ZN4core3ptr20slice_from_raw_parts17h73fc8a3e98dcb71dE,@function
_ZN4core3ptr20slice_from_raw_parts17h73fc8a3e98dcb71dE:
.Lfunc_begin32:
	.file	14 "/rustc/f1edd0429582dd29cccacaf50fd134b05593bd9c/library/core/src/ptr/mod.rs"
	.loc	14 257 0
	.cfi_startproc
	subq	$56, %rsp
	.cfi_def_cfa_offset 64
	movq	%rsi, 24(%rsp)
	movq	%rdi, 40(%rsp)
	movq	%rsi, 48(%rsp)
.Ltmp98:
	.loc	14 258 20 prologue_end
	callq	_ZN4core3ptr9const_ptr33_$LT$impl$u20$$BP$const$u20$T$GT$4cast17h1a6fa2ab829a1fe1E
	movq	%rax, 32(%rsp)
	.loc	14 0 20 is_stmt 0
	movq	24(%rsp), %rsi
	movq	32(%rsp), %rdi
	.loc	14 258 5
	callq	_ZN4core3ptr8metadata14from_raw_parts17h3c80ce79006a4103E
	movq	%rax, 8(%rsp)
	movq	%rdx, 16(%rsp)
	.loc	14 0 5
	movq	16(%rsp), %rdx
	movq	8(%rsp), %rax
	.loc	14 259 2 is_stmt 1
	addq	$56, %rsp
	.cfi_def_cfa_offset 8
	retq
.Ltmp99:
.Lfunc_end32:
	.size	_ZN4core3ptr20slice_from_raw_parts17h73fc8a3e98dcb71dE, .Lfunc_end32-_ZN4core3ptr20slice_from_raw_parts17h73fc8a3e98dcb71dE
	.cfi_endproc

	.section	.text._ZN4core3ptr24slice_from_raw_parts_mut17h65eb52226c15d2c3E,"ax",@progbits
	.p2align	4, 0x90
	.type	_ZN4core3ptr24slice_from_raw_parts_mut17h65eb52226c15d2c3E,@function
_ZN4core3ptr24slice_from_raw_parts_mut17h65eb52226c15d2c3E:
.Lfunc_begin33:
	.loc	14 289 0
	.cfi_startproc
	subq	$56, %rsp
	.cfi_def_cfa_offset 64
	movq	%rsi, 16(%rsp)
	movq	%rdi, 32(%rsp)
	movq	%rsi, 40(%rsp)
	movq	%rdi, 48(%rsp)
	movq	%rdi, 24(%rsp)
	movq	16(%rsp), %rsi
	movq	24(%rsp), %rdi
.Ltmp100:
	.loc	14 290 5 prologue_end
	callq	_ZN4core3ptr8metadata18from_raw_parts_mut17h3ff4046b5b0f9477E
	movq	%rax, (%rsp)
	movq	%rdx, 8(%rsp)
	.loc	14 0 5 is_stmt 0
	movq	8(%rsp), %rdx
	movq	(%rsp), %rax
	.loc	14 291 2 is_stmt 1
	addq	$56, %rsp
	.cfi_def_cfa_offset 8
	retq
.Ltmp101:
.Lfunc_end33:
	.size	_ZN4core3ptr24slice_from_raw_parts_mut17h65eb52226c15d2c3E, .Lfunc_end33-_ZN4core3ptr24slice_from_raw_parts_mut17h65eb52226c15d2c3E
	.cfi_endproc

	.section	".text._ZN4core3ptr42drop_in_place$LT$alloc..string..String$GT$17h723645c7b464a9c8E","ax",@progbits
	.p2align	4, 0x90
	.type	_ZN4core3ptr42drop_in_place$LT$alloc..string..String$GT$17h723645c7b464a9c8E,@function
_ZN4core3ptr42drop_in_place$LT$alloc..string..String$GT$17h723645c7b464a9c8E:
.Lfunc_begin34:
	.loc	14 188 0
	.cfi_startproc
	pushq	%rax
	.cfi_def_cfa_offset 16
	movq	%rdi, (%rsp)
.Ltmp102:
	.loc	14 188 1 prologue_end
	callq	_ZN4core3ptr46drop_in_place$LT$alloc..vec..Vec$LT$u8$GT$$GT$17h3829b5e11efdd882E
	popq	%rax
	.cfi_def_cfa_offset 8
	retq
.Ltmp103:
.Lfunc_end34:
	.size	_ZN4core3ptr42drop_in_place$LT$alloc..string..String$GT$17h723645c7b464a9c8E, .Lfunc_end34-_ZN4core3ptr42drop_in_place$LT$alloc..string..String$GT$17h723645c7b464a9c8E
	.cfi_endproc

	.section	".text._ZN4core3ptr46drop_in_place$LT$alloc..vec..Vec$LT$u8$GT$$GT$17h3829b5e11efdd882E","ax",@progbits
	.p2align	4, 0x90
	.type	_ZN4core3ptr46drop_in_place$LT$alloc..vec..Vec$LT$u8$GT$$GT$17h3829b5e11efdd882E,@function
_ZN4core3ptr46drop_in_place$LT$alloc..vec..Vec$LT$u8$GT$$GT$17h3829b5e11efdd882E:
.Lfunc_begin35:
	.loc	14 188 0
	.cfi_startproc
	.cfi_personality 155, DW.ref.rust_eh_personality
	.cfi_lsda 27, .Lexception3
	subq	$40, %rsp
	.cfi_def_cfa_offset 48
	movq	%rdi, 8(%rsp)
	movq	%rdi, 16(%rsp)
.Ltmp104:
.Ltmp107:
	.loc	14 188 1 prologue_end
	callq	_ZN70_$LT$alloc..vec..Vec$LT$T$C$A$GT$$u20$as$u20$core..ops..drop..Drop$GT$4drop17h40cd0c1e81929a50E
.Ltmp105:
	jmp	.LBB35_1
.LBB35_1:
	.loc	14 0 1 is_stmt 0
	movq	8(%rsp), %rdi
	.loc	14 188 1
	callq	_ZN4core3ptr53drop_in_place$LT$alloc..raw_vec..RawVec$LT$u8$GT$$GT$17hd0ed1ae5097c8500E
	jmp	.LBB35_5
.LBB35_2:
	.loc	14 0 1
	movq	8(%rsp), %rdi
	.loc	14 188 1
	callq	_ZN4core3ptr53drop_in_place$LT$alloc..raw_vec..RawVec$LT$u8$GT$$GT$17hd0ed1ae5097c8500E
	jmp	.LBB35_4
.LBB35_3:
.Ltmp106:
	.loc	14 0 1
	movq	%rax, %rcx
	movl	%edx, %eax
	movq	%rcx, 24(%rsp)
	movl	%eax, 32(%rsp)
	jmp	.LBB35_2
.LBB35_4:
	.loc	14 188 1
	movq	24(%rsp), %rdi
	callq	_Unwind_Resume@PLT
	ud2
.LBB35_5:
	addq	$40, %rsp
	.cfi_def_cfa_offset 8
	retq
.Ltmp108:
.Lfunc_end35:
	.size	_ZN4core3ptr46drop_in_place$LT$alloc..vec..Vec$LT$u8$GT$$GT$17h3829b5e11efdd882E, .Lfunc_end35-_ZN4core3ptr46drop_in_place$LT$alloc..vec..Vec$LT$u8$GT$$GT$17h3829b5e11efdd882E
	.cfi_endproc
	.section	".gcc_except_table._ZN4core3ptr46drop_in_place$LT$alloc..vec..Vec$LT$u8$GT$$GT$17h3829b5e11efdd882E","a",@progbits
	.p2align	2
GCC_except_table35:
.Lexception3:
	.byte	255
	.byte	255
	.byte	1
	.uleb128 .Lcst_end3-.Lcst_begin3
.Lcst_begin3:
	.uleb128 .Ltmp104-.Lfunc_begin35
	.uleb128 .Ltmp105-.Ltmp104
	.uleb128 .Ltmp106-.Lfunc_begin35
	.byte	0
	.uleb128 .Ltmp105-.Lfunc_begin35
	.uleb128 .Lfunc_end35-.Ltmp105
	.byte	0
	.byte	0
.Lcst_end3:
	.p2align	2

	.section	.text._ZN4core3ptr4read17h8c97b85808dc0822E,"ax",@progbits
	.p2align	4, 0x90
	.type	_ZN4core3ptr4read17h8c97b85808dc0822E,@function
_ZN4core3ptr4read17h8c97b85808dc0822E:
.Lfunc_begin36:
	.loc	14 683 0 is_stmt 1
	.cfi_startproc
	subq	$32, %rsp
	.cfi_def_cfa_offset 40
	movq	%rdi, 8(%rsp)
	movq	%rsp, %rax
	movq	%rax, 24(%rsp)
.Ltmp109:
	.file	15 "/rustc/f1edd0429582dd29cccacaf50fd134b05593bd9c/library/core/src/mem/maybe_uninit.rs"
	.loc	15 574 9 prologue_end
	movq	%rsp, %rax
.Ltmp110:
	.loc	14 702 2
	addq	$32, %rsp
	.cfi_def_cfa_offset 8
	retq
.Ltmp111:
.Lfunc_end36:
	.size	_ZN4core3ptr4read17h8c97b85808dc0822E, .Lfunc_end36-_ZN4core3ptr4read17h8c97b85808dc0822E
	.cfi_endproc

	.section	".text._ZN4core3ptr53drop_in_place$LT$alloc..raw_vec..RawVec$LT$u8$GT$$GT$17hd0ed1ae5097c8500E","ax",@progbits
	.p2align	4, 0x90
	.type	_ZN4core3ptr53drop_in_place$LT$alloc..raw_vec..RawVec$LT$u8$GT$$GT$17hd0ed1ae5097c8500E,@function
_ZN4core3ptr53drop_in_place$LT$alloc..raw_vec..RawVec$LT$u8$GT$$GT$17hd0ed1ae5097c8500E:
.Lfunc_begin37:
	.loc	14 188 0
	.cfi_startproc
	pushq	%rax
	.cfi_def_cfa_offset 16
	movq	%rdi, (%rsp)
.Ltmp112:
	.loc	14 188 1 prologue_end
	callq	_ZN77_$LT$alloc..raw_vec..RawVec$LT$T$C$A$GT$$u20$as$u20$core..ops..drop..Drop$GT$4drop17h4e36ddc5892780ccE
	popq	%rax
	.cfi_def_cfa_offset 8
	retq
.Ltmp113:
.Lfunc_end37:
	.size	_ZN4core3ptr53drop_in_place$LT$alloc..raw_vec..RawVec$LT$u8$GT$$GT$17hd0ed1ae5097c8500E, .Lfunc_end37-_ZN4core3ptr53drop_in_place$LT$alloc..raw_vec..RawVec$LT$u8$GT$$GT$17hd0ed1ae5097c8500E
	.cfi_endproc

	.section	".text._ZN4core3ptr53drop_in_place$LT$core..alloc..layout..LayoutError$GT$17h878c0c2d5669bcffE","ax",@progbits
	.p2align	4, 0x90
	.type	_ZN4core3ptr53drop_in_place$LT$core..alloc..layout..LayoutError$GT$17h878c0c2d5669bcffE,@function
_ZN4core3ptr53drop_in_place$LT$core..alloc..layout..LayoutError$GT$17h878c0c2d5669bcffE:
.Lfunc_begin38:
	.loc	14 188 0
	.cfi_startproc
	pushq	%rax
	.cfi_def_cfa_offset 16
	movq	%rdi, (%rsp)
.Ltmp114:
	.loc	14 188 1 prologue_end
	popq	%rax
	.cfi_def_cfa_offset 8
	retq
.Ltmp115:
.Lfunc_end38:
	.size	_ZN4core3ptr53drop_in_place$LT$core..alloc..layout..LayoutError$GT$17h878c0c2d5669bcffE, .Lfunc_end38-_ZN4core3ptr53drop_in_place$LT$core..alloc..layout..LayoutError$GT$17h878c0c2d5669bcffE
	.cfi_endproc

	.section	".text._ZN4core3ptr67drop_in_place$LT$alloc..boxed..Box$LT$alloc..string..String$GT$$GT$17h8008da716a738a01E","ax",@progbits
	.p2align	4, 0x90
	.type	_ZN4core3ptr67drop_in_place$LT$alloc..boxed..Box$LT$alloc..string..String$GT$$GT$17h8008da716a738a01E,@function
_ZN4core3ptr67drop_in_place$LT$alloc..boxed..Box$LT$alloc..string..String$GT$$GT$17h8008da716a738a01E:
.Lfunc_begin39:
	.loc	14 188 0
	.cfi_startproc
	.cfi_personality 155, DW.ref.rust_eh_personality
	.cfi_lsda 27, .Lexception4
	subq	$40, %rsp
	.cfi_def_cfa_offset 48
	movq	%rdi, 8(%rsp)
	movq	%rdi, 16(%rsp)
.Ltmp119:
	.loc	14 188 1 prologue_end
	movq	(%rdi), %rdi
.Ltmp116:
	callq	_ZN4core3ptr42drop_in_place$LT$alloc..string..String$GT$17h723645c7b464a9c8E
.Ltmp117:
	jmp	.LBB39_1
.LBB39_1:
	.loc	14 0 1 is_stmt 0
	movq	8(%rsp), %rax
	.loc	14 188 1
	movq	(%rax), %rdi
	callq	_ZN5alloc5alloc8box_free17h018f5c6fc706a73dE
	jmp	.LBB39_5
.LBB39_2:
	.loc	14 0 1
	movq	8(%rsp), %rax
	.loc	14 188 1
	movq	(%rax), %rdi
	callq	_ZN5alloc5alloc8box_free17h018f5c6fc706a73dE
	jmp	.LBB39_4
.LBB39_3:
.Ltmp118:
	.loc	14 0 1
	movq	%rax, %rcx
	movl	%edx, %eax
	movq	%rcx, 24(%rsp)
	movl	%eax, 32(%rsp)
	jmp	.LBB39_2
.LBB39_4:
	.loc	14 188 1
	movq	24(%rsp), %rdi
	callq	_Unwind_Resume@PLT
	ud2
.LBB39_5:
	addq	$40, %rsp
	.cfi_def_cfa_offset 8
	retq
.Ltmp120:
.Lfunc_end39:
	.size	_ZN4core3ptr67drop_in_place$LT$alloc..boxed..Box$LT$alloc..string..String$GT$$GT$17h8008da716a738a01E, .Lfunc_end39-_ZN4core3ptr67drop_in_place$LT$alloc..boxed..Box$LT$alloc..string..String$GT$$GT$17h8008da716a738a01E
	.cfi_endproc
	.section	".gcc_except_table._ZN4core3ptr67drop_in_place$LT$alloc..boxed..Box$LT$alloc..string..String$GT$$GT$17h8008da716a738a01E","a",@progbits
	.p2align	2
GCC_except_table39:
.Lexception4:
	.byte	255
	.byte	255
	.byte	1
	.uleb128 .Lcst_end4-.Lcst_begin4
.Lcst_begin4:
	.uleb128 .Ltmp116-.Lfunc_begin39
	.uleb128 .Ltmp117-.Ltmp116
	.uleb128 .Ltmp118-.Lfunc_begin39
	.byte	0
	.uleb128 .Ltmp117-.Lfunc_begin39
	.uleb128 .Lfunc_end39-.Ltmp117
	.byte	0
	.byte	0
.Lcst_end4:
	.p2align	2

	.section	".text._ZN4core3ptr6unique15Unique$LT$T$GT$13new_unchecked17haa10f10787403a37E","ax",@progbits
	.p2align	4, 0x90
	.type	_ZN4core3ptr6unique15Unique$LT$T$GT$13new_unchecked17haa10f10787403a37E,@function
_ZN4core3ptr6unique15Unique$LT$T$GT$13new_unchecked17haa10f10787403a37E:
.Lfunc_begin40:
	.file	16 "/rustc/f1edd0429582dd29cccacaf50fd134b05593bd9c/library/core/src/ptr/unique.rs"
	.loc	16 87 0 is_stmt 1
	.cfi_startproc
	subq	$16, %rsp
	.cfi_def_cfa_offset 24
	movq	%rdi, 8(%rsp)
.Ltmp121:
	.loc	16 89 18 prologue_end
	movq	%rdi, (%rsp)
	.loc	16 90 6
	movq	(%rsp), %rax
	addq	$16, %rsp
	.cfi_def_cfa_offset 8
	retq
.Ltmp122:
.Lfunc_end40:
	.size	_ZN4core3ptr6unique15Unique$LT$T$GT$13new_unchecked17haa10f10787403a37E, .Lfunc_end40-_ZN4core3ptr6unique15Unique$LT$T$GT$13new_unchecked17haa10f10787403a37E
	.cfi_endproc

	.section	".text._ZN4core3ptr6unique15Unique$LT$T$GT$4cast17h0c37dfba48cd372aE","ax",@progbits
	.p2align	4, 0x90
	.type	_ZN4core3ptr6unique15Unique$LT$T$GT$4cast17h0c37dfba48cd372aE,@function
_ZN4core3ptr6unique15Unique$LT$T$GT$4cast17h0c37dfba48cd372aE:
.Lfunc_begin41:
	.loc	16 139 0
	.cfi_startproc
	subq	$24, %rsp
	.cfi_def_cfa_offset 32
	movq	%rdi, 16(%rsp)
.Ltmp123:
	.loc	16 143 40 prologue_end
	callq	_ZN4core3ptr6unique15Unique$LT$T$GT$6as_ptr17h38f289465a9cc55fE
	movq	%rax, 8(%rsp)
	.loc	16 0 40 is_stmt 0
	movq	8(%rsp), %rdi
	.loc	16 143 18
	callq	_ZN4core3ptr6unique15Unique$LT$T$GT$13new_unchecked17haa10f10787403a37E
	movq	%rax, (%rsp)
	.loc	16 0 18
	movq	(%rsp), %rax
	.loc	16 144 6 is_stmt 1
	addq	$24, %rsp
	.cfi_def_cfa_offset 8
	retq
.Ltmp124:
.Lfunc_end41:
	.size	_ZN4core3ptr6unique15Unique$LT$T$GT$4cast17h0c37dfba48cd372aE, .Lfunc_end41-_ZN4core3ptr6unique15Unique$LT$T$GT$4cast17h0c37dfba48cd372aE
	.cfi_endproc

	.section	".text._ZN4core3ptr6unique15Unique$LT$T$GT$4cast17hfecfd0dd84f8cc8dE","ax",@progbits
	.p2align	4, 0x90
	.type	_ZN4core3ptr6unique15Unique$LT$T$GT$4cast17hfecfd0dd84f8cc8dE,@function
_ZN4core3ptr6unique15Unique$LT$T$GT$4cast17hfecfd0dd84f8cc8dE:
.Lfunc_begin42:
	.loc	16 139 0
	.cfi_startproc
	subq	$24, %rsp
	.cfi_def_cfa_offset 32
	movq	%rdi, 16(%rsp)
.Ltmp125:
	.loc	16 143 40 prologue_end
	callq	_ZN4core3ptr6unique15Unique$LT$T$GT$6as_ptr17h436a4fbbd5cea1a2E
	movq	%rax, 8(%rsp)
	.loc	16 0 40 is_stmt 0
	movq	8(%rsp), %rdi
	.loc	16 143 18
	callq	_ZN4core3ptr6unique15Unique$LT$T$GT$13new_unchecked17haa10f10787403a37E
	movq	%rax, (%rsp)
	.loc	16 0 18
	movq	(%rsp), %rax
	.loc	16 144 6 is_stmt 1
	addq	$24, %rsp
	.cfi_def_cfa_offset 8
	retq
.Ltmp126:
.Lfunc_end42:
	.size	_ZN4core3ptr6unique15Unique$LT$T$GT$4cast17hfecfd0dd84f8cc8dE, .Lfunc_end42-_ZN4core3ptr6unique15Unique$LT$T$GT$4cast17hfecfd0dd84f8cc8dE
	.cfi_endproc

	.section	".text._ZN4core3ptr6unique15Unique$LT$T$GT$6as_ptr17h38f289465a9cc55fE","ax",@progbits
	.p2align	4, 0x90
	.type	_ZN4core3ptr6unique15Unique$LT$T$GT$6as_ptr17h38f289465a9cc55fE,@function
_ZN4core3ptr6unique15Unique$LT$T$GT$6as_ptr17h38f289465a9cc55fE:
.Lfunc_begin43:
	.loc	16 106 0
	.cfi_startproc
	pushq	%rax
	.cfi_def_cfa_offset 16
	movq	%rdi, %rax
	movq	%rax, (%rsp)
.Ltmp127:
	.loc	16 108 6 prologue_end
	popq	%rcx
	.cfi_def_cfa_offset 8
	retq
.Ltmp128:
.Lfunc_end43:
	.size	_ZN4core3ptr6unique15Unique$LT$T$GT$6as_ptr17h38f289465a9cc55fE, .Lfunc_end43-_ZN4core3ptr6unique15Unique$LT$T$GT$6as_ptr17h38f289465a9cc55fE
	.cfi_endproc

	.section	".text._ZN4core3ptr6unique15Unique$LT$T$GT$6as_ptr17h436a4fbbd5cea1a2E","ax",@progbits
	.p2align	4, 0x90
	.type	_ZN4core3ptr6unique15Unique$LT$T$GT$6as_ptr17h436a4fbbd5cea1a2E,@function
_ZN4core3ptr6unique15Unique$LT$T$GT$6as_ptr17h436a4fbbd5cea1a2E:
.Lfunc_begin44:
	.loc	16 106 0
	.cfi_startproc
	pushq	%rax
	.cfi_def_cfa_offset 16
	movq	%rdi, %rax
	movq	%rax, (%rsp)
.Ltmp129:
	.loc	16 108 6 prologue_end
	popq	%rcx
	.cfi_def_cfa_offset 8
	retq
.Ltmp130:
.Lfunc_end44:
	.size	_ZN4core3ptr6unique15Unique$LT$T$GT$6as_ptr17h436a4fbbd5cea1a2E, .Lfunc_end44-_ZN4core3ptr6unique15Unique$LT$T$GT$6as_ptr17h436a4fbbd5cea1a2E
	.cfi_endproc

	.section	".text._ZN4core3ptr6unique15Unique$LT$T$GT$6as_ref17h790c261c61c63339E","ax",@progbits
	.p2align	4, 0x90
	.type	_ZN4core3ptr6unique15Unique$LT$T$GT$6as_ref17h790c261c61c63339E,@function
_ZN4core3ptr6unique15Unique$LT$T$GT$6as_ref17h790c261c61c63339E:
.Lfunc_begin45:
	.loc	16 117 0
	.cfi_startproc
	subq	$24, %rsp
	.cfi_def_cfa_offset 32
	movq	%rdi, 16(%rsp)
.Ltmp131:
	.loc	16 120 20 prologue_end
	movq	(%rdi), %rdi
	callq	_ZN4core3ptr6unique15Unique$LT$T$GT$6as_ptr17h436a4fbbd5cea1a2E
	movq	%rax, 8(%rsp)
	.loc	16 0 20 is_stmt 0
	movq	8(%rsp), %rax
	.loc	16 121 6 is_stmt 1
	addq	$24, %rsp
	.cfi_def_cfa_offset 8
	retq
.Ltmp132:
.Lfunc_end45:
	.size	_ZN4core3ptr6unique15Unique$LT$T$GT$6as_ref17h790c261c61c63339E, .Lfunc_end45-_ZN4core3ptr6unique15Unique$LT$T$GT$6as_ref17h790c261c61c63339E
	.cfi_endproc

	.section	".text._ZN4core3ptr6unique15Unique$LT$T$GT$8dangling17hab7c6765941b1110E","ax",@progbits
	.p2align	4, 0x90
	.type	_ZN4core3ptr6unique15Unique$LT$T$GT$8dangling17hab7c6765941b1110E,@function
_ZN4core3ptr6unique15Unique$LT$T$GT$8dangling17hab7c6765941b1110E:
.Lfunc_begin46:
	.loc	16 72 0
	.cfi_startproc
	pushq	%rax
	.cfi_def_cfa_offset 16
.Ltmp133:
	.loc	16 75 40 prologue_end
	jmp	.LBB46_1
.LBB46_1:
	movl	$1, %edi
	.loc	16 75 18 is_stmt 0
	callq	_ZN4core3ptr6unique15Unique$LT$T$GT$13new_unchecked17haa10f10787403a37E
	movq	%rax, (%rsp)
	.loc	16 0 18
	movq	(%rsp), %rax
	.loc	16 76 6 is_stmt 1
	popq	%rcx
	.cfi_def_cfa_offset 8
	retq
.Ltmp134:
.Lfunc_end46:
	.size	_ZN4core3ptr6unique15Unique$LT$T$GT$8dangling17hab7c6765941b1110E, .Lfunc_end46-_ZN4core3ptr6unique15Unique$LT$T$GT$8dangling17hab7c6765941b1110E
	.cfi_endproc

	.section	".text._ZN4core3ptr7mut_ptr31_$LT$impl$u20$$BP$mut$u20$T$GT$13guaranteed_eq17h8a3963efb145ac38E","ax",@progbits
	.p2align	4, 0x90
	.type	_ZN4core3ptr7mut_ptr31_$LT$impl$u20$$BP$mut$u20$T$GT$13guaranteed_eq17h8a3963efb145ac38E,@function
_ZN4core3ptr7mut_ptr31_$LT$impl$u20$$BP$mut$u20$T$GT$13guaranteed_eq17h8a3963efb145ac38E:
.Lfunc_begin47:
	.file	17 "/rustc/f1edd0429582dd29cccacaf50fd134b05593bd9c/library/core/src/ptr/mut_ptr.rs"
	.loc	17 433 0
	.cfi_startproc
	subq	$32, %rsp
	.cfi_def_cfa_offset 40
	movq	%rdi, 8(%rsp)
	movq	%rsi, 16(%rsp)
.Ltmp135:
	.loc	17 437 9 prologue_end
	cmpq	%rsi, %rdi
	sete	%al
	andb	$1, %al
	movb	%al, 31(%rsp)
	movb	31(%rsp), %al
	movb	%al, 7(%rsp)
	.loc	17 0 9 is_stmt 0
	movb	7(%rsp), %al
	.loc	17 438 6 is_stmt 1
	andb	$1, %al
	movzbl	%al, %eax
	addq	$32, %rsp
	.cfi_def_cfa_offset 8
	retq
.Ltmp136:
.Lfunc_end47:
	.size	_ZN4core3ptr7mut_ptr31_$LT$impl$u20$$BP$mut$u20$T$GT$13guaranteed_eq17h8a3963efb145ac38E, .Lfunc_end47-_ZN4core3ptr7mut_ptr31_$LT$impl$u20$$BP$mut$u20$T$GT$13guaranteed_eq17h8a3963efb145ac38E
	.cfi_endproc

	.section	".text._ZN4core3ptr7mut_ptr31_$LT$impl$u20$$BP$mut$u20$T$GT$7is_null17he20e0c612bca676eE","ax",@progbits
	.p2align	4, 0x90
	.type	_ZN4core3ptr7mut_ptr31_$LT$impl$u20$$BP$mut$u20$T$GT$7is_null17he20e0c612bca676eE,@function
_ZN4core3ptr7mut_ptr31_$LT$impl$u20$$BP$mut$u20$T$GT$7is_null17he20e0c612bca676eE:
.Lfunc_begin48:
	.loc	17 36 0
	.cfi_startproc
	subq	$24, %rsp
	.cfi_def_cfa_offset 32
	movq	%rdi, 8(%rsp)
	movq	%rdi, 16(%rsp)
	movq	8(%rsp), %rdi
.Ltmp137:
	.loc	17 39 9 prologue_end
	xorl	%eax, %eax
	movl	%eax, %esi
	callq	_ZN4core3ptr7mut_ptr31_$LT$impl$u20$$BP$mut$u20$T$GT$13guaranteed_eq17h8a3963efb145ac38E
	movb	%al, 7(%rsp)
	.loc	17 0 9 is_stmt 0
	movb	7(%rsp), %al
	.loc	17 40 6 is_stmt 1
	andb	$1, %al
	movzbl	%al, %eax
	addq	$24, %rsp
	.cfi_def_cfa_offset 8
	retq
.Ltmp138:
.Lfunc_end48:
	.size	_ZN4core3ptr7mut_ptr31_$LT$impl$u20$$BP$mut$u20$T$GT$7is_null17he20e0c612bca676eE, .Lfunc_end48-_ZN4core3ptr7mut_ptr31_$LT$impl$u20$$BP$mut$u20$T$GT$7is_null17he20e0c612bca676eE
	.cfi_endproc

	.section	".text._ZN4core3ptr85drop_in_place$LT$std..rt..lang_start$LT$$LP$$RP$$GT$..$u7b$$u7b$closure$u7d$$u7d$$GT$17h356c40bc3fa8ad54E","ax",@progbits
	.p2align	4, 0x90
	.type	_ZN4core3ptr85drop_in_place$LT$std..rt..lang_start$LT$$LP$$RP$$GT$..$u7b$$u7b$closure$u7d$$u7d$$GT$17h356c40bc3fa8ad54E,@function
_ZN4core3ptr85drop_in_place$LT$std..rt..lang_start$LT$$LP$$RP$$GT$..$u7b$$u7b$closure$u7d$$u7d$$GT$17h356c40bc3fa8ad54E:
.Lfunc_begin49:
	.loc	14 188 0
	.cfi_startproc
	pushq	%rax
	.cfi_def_cfa_offset 16
	movq	%rdi, (%rsp)
.Ltmp139:
	.loc	14 188 1 prologue_end
	popq	%rax
	.cfi_def_cfa_offset 8
	retq
.Ltmp140:
.Lfunc_end49:
	.size	_ZN4core3ptr85drop_in_place$LT$std..rt..lang_start$LT$$LP$$RP$$GT$..$u7b$$u7b$closure$u7d$$u7d$$GT$17h356c40bc3fa8ad54E, .Lfunc_end49-_ZN4core3ptr85drop_in_place$LT$std..rt..lang_start$LT$$LP$$RP$$GT$..$u7b$$u7b$closure$u7d$$u7d$$GT$17h356c40bc3fa8ad54E
	.cfi_endproc

	.section	.text._ZN4core3ptr8metadata14from_raw_parts17h3c80ce79006a4103E,"ax",@progbits
	.p2align	4, 0x90
	.type	_ZN4core3ptr8metadata14from_raw_parts17h3c80ce79006a4103E,@function
_ZN4core3ptr8metadata14from_raw_parts17h3c80ce79006a4103E:
.Lfunc_begin50:
	.file	18 "/rustc/f1edd0429582dd29cccacaf50fd134b05593bd9c/library/core/src/ptr/metadata.rs"
	.loc	18 110 0
	.cfi_startproc
	subq	$48, %rsp
	.cfi_def_cfa_offset 56
	movq	%rdi, 32(%rsp)
	movq	%rsi, 40(%rsp)
.Ltmp141:
	.loc	18 117 36 prologue_end
	movq	%rdi, 16(%rsp)
	movq	%rsi, 24(%rsp)
	.loc	18 117 14 is_stmt 0
	movq	16(%rsp), %rcx
	movq	24(%rsp), %rax
	movq	%rcx, (%rsp)
	movq	%rax, 8(%rsp)
	movq	(%rsp), %rax
	movq	8(%rsp), %rdx
	.loc	18 118 2 is_stmt 1
	addq	$48, %rsp
	.cfi_def_cfa_offset 8
	retq
.Ltmp142:
.Lfunc_end50:
	.size	_ZN4core3ptr8metadata14from_raw_parts17h3c80ce79006a4103E, .Lfunc_end50-_ZN4core3ptr8metadata14from_raw_parts17h3c80ce79006a4103E
	.cfi_endproc

	.section	.text._ZN4core3ptr8metadata18from_raw_parts_mut17h3ff4046b5b0f9477E,"ax",@progbits
	.p2align	4, 0x90
	.type	_ZN4core3ptr8metadata18from_raw_parts_mut17h3ff4046b5b0f9477E,@function
_ZN4core3ptr8metadata18from_raw_parts_mut17h3ff4046b5b0f9477E:
.Lfunc_begin51:
	.loc	18 127 0
	.cfi_startproc
	subq	$48, %rsp
	.cfi_def_cfa_offset 56
	movq	%rdi, 32(%rsp)
	movq	%rsi, 40(%rsp)
.Ltmp143:
	.loc	18 134 36 prologue_end
	movq	%rdi, 16(%rsp)
	movq	%rsi, 24(%rsp)
	.loc	18 134 14 is_stmt 0
	movq	16(%rsp), %rcx
	movq	24(%rsp), %rax
	movq	%rcx, (%rsp)
	movq	%rax, 8(%rsp)
	movq	(%rsp), %rax
	movq	8(%rsp), %rdx
	.loc	18 135 2 is_stmt 1
	addq	$48, %rsp
	.cfi_def_cfa_offset 8
	retq
.Ltmp144:
.Lfunc_end51:
	.size	_ZN4core3ptr8metadata18from_raw_parts_mut17h3ff4046b5b0f9477E, .Lfunc_end51-_ZN4core3ptr8metadata18from_raw_parts_mut17h3ff4046b5b0f9477E
	.cfi_endproc

	.section	.text._ZN4core3ptr8metadata8metadata17hff0be99522cd72c4E,"ax",@progbits
	.p2align	4, 0x90
	.type	_ZN4core3ptr8metadata8metadata17hff0be99522cd72c4E,@function
_ZN4core3ptr8metadata8metadata17hff0be99522cd72c4E:
.Lfunc_begin52:
	.loc	18 93 0
	.cfi_startproc
	subq	$32, %rsp
	.cfi_def_cfa_offset 40
	movq	%rdi, 16(%rsp)
	movq	%rsi, 24(%rsp)
.Ltmp145:
	.loc	18 97 14 prologue_end
	movq	%rdi, (%rsp)
	movq	%rsi, 8(%rsp)
	movq	8(%rsp), %rax
	.loc	18 98 2
	addq	$32, %rsp
	.cfi_def_cfa_offset 8
	retq
.Ltmp146:
.Lfunc_end52:
	.size	_ZN4core3ptr8metadata8metadata17hff0be99522cd72c4E, .Lfunc_end52-_ZN4core3ptr8metadata8metadata17hff0be99522cd72c4E
	.cfi_endproc

	.section	".text._ZN4core3ptr8non_null16NonNull$LT$T$GT$13new_unchecked17h161e34878aeb2ef7E","ax",@progbits
	.p2align	4, 0x90
	.type	_ZN4core3ptr8non_null16NonNull$LT$T$GT$13new_unchecked17h161e34878aeb2ef7E,@function
_ZN4core3ptr8non_null16NonNull$LT$T$GT$13new_unchecked17h161e34878aeb2ef7E:
.Lfunc_begin53:
	.loc	1 191 0
	.cfi_startproc
	subq	$32, %rsp
	.cfi_def_cfa_offset 40
	movq	%rdi, 16(%rsp)
	movq	%rsi, 24(%rsp)
.Ltmp147:
	.loc	1 193 18 prologue_end
	movq	%rdi, (%rsp)
	movq	%rsi, 8(%rsp)
	.loc	1 194 6
	movq	(%rsp), %rax
	movq	8(%rsp), %rdx
	addq	$32, %rsp
	.cfi_def_cfa_offset 8
	retq
.Ltmp148:
.Lfunc_end53:
	.size	_ZN4core3ptr8non_null16NonNull$LT$T$GT$13new_unchecked17h161e34878aeb2ef7E, .Lfunc_end53-_ZN4core3ptr8non_null16NonNull$LT$T$GT$13new_unchecked17h161e34878aeb2ef7E
	.cfi_endproc

	.section	".text._ZN4core3ptr8non_null16NonNull$LT$T$GT$13new_unchecked17h32907eb9fb351a26E","ax",@progbits
	.p2align	4, 0x90
	.type	_ZN4core3ptr8non_null16NonNull$LT$T$GT$13new_unchecked17h32907eb9fb351a26E,@function
_ZN4core3ptr8non_null16NonNull$LT$T$GT$13new_unchecked17h32907eb9fb351a26E:
.Lfunc_begin54:
	.loc	1 191 0
	.cfi_startproc
	subq	$16, %rsp
	.cfi_def_cfa_offset 24
	movq	%rdi, 8(%rsp)
.Ltmp149:
	.loc	1 193 18 prologue_end
	movq	%rdi, (%rsp)
	.loc	1 194 6
	movq	(%rsp), %rax
	addq	$16, %rsp
	.cfi_def_cfa_offset 8
	retq
.Ltmp150:
.Lfunc_end54:
	.size	_ZN4core3ptr8non_null16NonNull$LT$T$GT$13new_unchecked17h32907eb9fb351a26E, .Lfunc_end54-_ZN4core3ptr8non_null16NonNull$LT$T$GT$13new_unchecked17h32907eb9fb351a26E
	.cfi_endproc

	.section	".text._ZN4core3ptr8non_null16NonNull$LT$T$GT$3new17hf310d9e05b68019bE","ax",@progbits
	.p2align	4, 0x90
	.type	_ZN4core3ptr8non_null16NonNull$LT$T$GT$3new17hf310d9e05b68019bE,@function
_ZN4core3ptr8non_null16NonNull$LT$T$GT$3new17hf310d9e05b68019bE:
.Lfunc_begin55:
	.loc	1 212 0
	.cfi_startproc
	subq	$40, %rsp
	.cfi_def_cfa_offset 48
	movq	%rdi, 8(%rsp)
	movq	%rdi, 32(%rsp)
.Ltmp151:
	.loc	1 213 13 prologue_end
	callq	_ZN4core3ptr7mut_ptr31_$LT$impl$u20$$BP$mut$u20$T$GT$7is_null17he20e0c612bca676eE
	movb	%al, 23(%rsp)
	.loc	1 0 13 is_stmt 0
	movb	23(%rsp), %al
	.loc	1 213 12
	xorb	$-1, %al
	testb	$1, %al
	jne	.LBB55_3
	.loc	1 217 13 is_stmt 1
	movq	$0, 24(%rsp)
	.loc	1 213 9
	jmp	.LBB55_5
.LBB55_3:
	.loc	1 0 9 is_stmt 0
	movq	8(%rsp), %rdi
	.loc	1 215 27 is_stmt 1
	callq	_ZN4core3ptr8non_null16NonNull$LT$T$GT$13new_unchecked17h32907eb9fb351a26E
	movq	%rax, (%rsp)
	.loc	1 0 27 is_stmt 0
	movq	(%rsp), %rax
	.loc	1 215 13
	movq	%rax, 24(%rsp)
.LBB55_5:
	.loc	1 219 6 is_stmt 1
	movq	24(%rsp), %rax
	addq	$40, %rsp
	.cfi_def_cfa_offset 8
	retq
.Ltmp152:
.Lfunc_end55:
	.size	_ZN4core3ptr8non_null16NonNull$LT$T$GT$3new17hf310d9e05b68019bE, .Lfunc_end55-_ZN4core3ptr8non_null16NonNull$LT$T$GT$3new17hf310d9e05b68019bE
	.cfi_endproc

	.section	".text._ZN4core3ptr8non_null16NonNull$LT$T$GT$4cast17hecd4eafc4481ee60E","ax",@progbits
	.p2align	4, 0x90
	.type	_ZN4core3ptr8non_null16NonNull$LT$T$GT$4cast17hecd4eafc4481ee60E,@function
_ZN4core3ptr8non_null16NonNull$LT$T$GT$4cast17hecd4eafc4481ee60E:
.Lfunc_begin56:
	.loc	1 394 0
	.cfi_startproc
	subq	$40, %rsp
	.cfi_def_cfa_offset 48
	movq	%rdi, 24(%rsp)
	movq	%rsi, 32(%rsp)
.Ltmp153:
	.loc	1 396 41 prologue_end
	callq	_ZN4core3ptr8non_null16NonNull$LT$T$GT$6as_ptr17h3a91f9411ad3f2e8E
	movq	%rax, 16(%rsp)
	.loc	1 0 41 is_stmt 0
	movq	16(%rsp), %rdi
	.loc	1 396 18
	callq	_ZN4core3ptr8non_null16NonNull$LT$T$GT$13new_unchecked17h32907eb9fb351a26E
	movq	%rax, 8(%rsp)
	.loc	1 0 18
	movq	8(%rsp), %rax
	.loc	1 397 6 is_stmt 1
	addq	$40, %rsp
	.cfi_def_cfa_offset 8
	retq
.Ltmp154:
.Lfunc_end56:
	.size	_ZN4core3ptr8non_null16NonNull$LT$T$GT$4cast17hecd4eafc4481ee60E, .Lfunc_end56-_ZN4core3ptr8non_null16NonNull$LT$T$GT$4cast17hecd4eafc4481ee60E
	.cfi_endproc

	.section	".text._ZN4core3ptr8non_null16NonNull$LT$T$GT$6as_ptr17h3a91f9411ad3f2e8E","ax",@progbits
	.p2align	4, 0x90
	.type	_ZN4core3ptr8non_null16NonNull$LT$T$GT$6as_ptr17h3a91f9411ad3f2e8E,@function
_ZN4core3ptr8non_null16NonNull$LT$T$GT$6as_ptr17h3a91f9411ad3f2e8E:
.Lfunc_begin57:
	.loc	1 273 0
	.cfi_startproc
	subq	$16, %rsp
	.cfi_def_cfa_offset 24
	movq	%rsi, %rdx
	movq	%rdi, %rax
	movq	%rax, (%rsp)
	movq	%rdx, 8(%rsp)
.Ltmp155:
	.loc	1 275 6 prologue_end
	addq	$16, %rsp
	.cfi_def_cfa_offset 8
	retq
.Ltmp156:
.Lfunc_end57:
	.size	_ZN4core3ptr8non_null16NonNull$LT$T$GT$6as_ptr17h3a91f9411ad3f2e8E, .Lfunc_end57-_ZN4core3ptr8non_null16NonNull$LT$T$GT$6as_ptr17h3a91f9411ad3f2e8E
	.cfi_endproc

	.section	".text._ZN4core3ptr8non_null16NonNull$LT$T$GT$6as_ptr17hf5d86412ce9e3ea7E","ax",@progbits
	.p2align	4, 0x90
	.type	_ZN4core3ptr8non_null16NonNull$LT$T$GT$6as_ptr17hf5d86412ce9e3ea7E,@function
_ZN4core3ptr8non_null16NonNull$LT$T$GT$6as_ptr17hf5d86412ce9e3ea7E:
.Lfunc_begin58:
	.loc	1 273 0
	.cfi_startproc
	pushq	%rax
	.cfi_def_cfa_offset 16
	movq	%rdi, %rax
	movq	%rax, (%rsp)
.Ltmp157:
	.loc	1 275 6 prologue_end
	popq	%rcx
	.cfi_def_cfa_offset 8
	retq
.Ltmp158:
.Lfunc_end58:
	.size	_ZN4core3ptr8non_null16NonNull$LT$T$GT$6as_ptr17hf5d86412ce9e3ea7E, .Lfunc_end58-_ZN4core3ptr8non_null16NonNull$LT$T$GT$6as_ptr17hf5d86412ce9e3ea7E
	.cfi_endproc

	.section	".text._ZN4core3ptr8non_null26NonNull$LT$$u5b$T$u5d$$GT$10as_mut_ptr17hb03f0f887199248fE","ax",@progbits
	.p2align	4, 0x90
	.type	_ZN4core3ptr8non_null26NonNull$LT$$u5b$T$u5d$$GT$10as_mut_ptr17hb03f0f887199248fE,@function
_ZN4core3ptr8non_null26NonNull$LT$$u5b$T$u5d$$GT$10as_mut_ptr17hb03f0f887199248fE:
.Lfunc_begin59:
	.loc	1 490 0
	.cfi_startproc
	subq	$40, %rsp
	.cfi_def_cfa_offset 48
	movq	%rdi, 24(%rsp)
	movq	%rsi, 32(%rsp)
.Ltmp159:
	.loc	1 491 9 prologue_end
	callq	_ZN4core3ptr8non_null26NonNull$LT$$u5b$T$u5d$$GT$15as_non_null_ptr17hda435e347e10e10dE
	movq	%rax, 16(%rsp)
	.loc	1 0 9 is_stmt 0
	movq	16(%rsp), %rdi
	.loc	1 491 9
	callq	_ZN4core3ptr8non_null16NonNull$LT$T$GT$6as_ptr17hf5d86412ce9e3ea7E
	movq	%rax, 8(%rsp)
	.loc	1 0 9
	movq	8(%rsp), %rax
	.loc	1 492 6 is_stmt 1
	addq	$40, %rsp
	.cfi_def_cfa_offset 8
	retq
.Ltmp160:
.Lfunc_end59:
	.size	_ZN4core3ptr8non_null26NonNull$LT$$u5b$T$u5d$$GT$10as_mut_ptr17hb03f0f887199248fE, .Lfunc_end59-_ZN4core3ptr8non_null26NonNull$LT$$u5b$T$u5d$$GT$10as_mut_ptr17hb03f0f887199248fE
	.cfi_endproc

	.section	".text._ZN4core3ptr8non_null26NonNull$LT$$u5b$T$u5d$$GT$15as_non_null_ptr17hda435e347e10e10dE","ax",@progbits
	.p2align	4, 0x90
	.type	_ZN4core3ptr8non_null26NonNull$LT$$u5b$T$u5d$$GT$15as_non_null_ptr17hda435e347e10e10dE,@function
_ZN4core3ptr8non_null26NonNull$LT$$u5b$T$u5d$$GT$15as_non_null_ptr17hda435e347e10e10dE:
.Lfunc_begin60:
	.loc	1 470 0
	.cfi_startproc
	subq	$72, %rsp
	.cfi_def_cfa_offset 80
	movq	%rdi, 40(%rsp)
	movq	%rsi, 48(%rsp)
.Ltmp161:
	.loc	1 472 41 prologue_end
	callq	_ZN4core3ptr8non_null16NonNull$LT$T$GT$6as_ptr17h3a91f9411ad3f2e8E
	movq	%rax, 24(%rsp)
	movq	%rdx, 32(%rsp)
	.loc	1 0 41 is_stmt 0
	movq	24(%rsp), %rax
	movq	32(%rsp), %rcx
	movq	%rax, 56(%rsp)
	movq	%rcx, 64(%rsp)
	movq	%rax, 16(%rsp)
	movq	16(%rsp), %rdi
	.loc	1 472 18
	callq	_ZN4core3ptr8non_null16NonNull$LT$T$GT$13new_unchecked17h32907eb9fb351a26E
	movq	%rax, 8(%rsp)
	.loc	1 0 18
	movq	8(%rsp), %rax
	.loc	1 473 6 is_stmt 1
	addq	$72, %rsp
	.cfi_def_cfa_offset 8
	retq
.Ltmp162:
.Lfunc_end60:
	.size	_ZN4core3ptr8non_null26NonNull$LT$$u5b$T$u5d$$GT$15as_non_null_ptr17hda435e347e10e10dE, .Lfunc_end60-_ZN4core3ptr8non_null26NonNull$LT$$u5b$T$u5d$$GT$15as_non_null_ptr17hda435e347e10e10dE
	.cfi_endproc

	.section	".text._ZN4core3ptr8non_null26NonNull$LT$$u5b$T$u5d$$GT$20slice_from_raw_parts17h293b001fd3ba1281E","ax",@progbits
	.p2align	4, 0x90
	.type	_ZN4core3ptr8non_null26NonNull$LT$$u5b$T$u5d$$GT$20slice_from_raw_parts17h293b001fd3ba1281E,@function
_ZN4core3ptr8non_null26NonNull$LT$$u5b$T$u5d$$GT$20slice_from_raw_parts17h293b001fd3ba1281E:
.Lfunc_begin61:
	.loc	1 427 0
	.cfi_startproc
	subq	$72, %rsp
	.cfi_def_cfa_offset 80
	movq	%rsi, 40(%rsp)
	movq	%rdi, 56(%rsp)
	movq	%rsi, 64(%rsp)
.Ltmp163:
	.loc	1 429 70 prologue_end
	callq	_ZN4core3ptr8non_null16NonNull$LT$T$GT$6as_ptr17hf5d86412ce9e3ea7E
	movq	%rax, 48(%rsp)
	.loc	1 0 70 is_stmt 0
	movq	40(%rsp), %rsi
	movq	48(%rsp), %rdi
	.loc	1 429 38
	callq	_ZN4core3ptr24slice_from_raw_parts_mut17h65eb52226c15d2c3E
	movq	%rax, 24(%rsp)
	movq	%rdx, 32(%rsp)
	.loc	1 0 38
	movq	32(%rsp), %rsi
	movq	24(%rsp), %rdi
	.loc	1 429 18
	callq	_ZN4core3ptr8non_null16NonNull$LT$T$GT$13new_unchecked17h161e34878aeb2ef7E
	movq	%rax, 8(%rsp)
	movq	%rdx, 16(%rsp)
	.loc	1 0 18
	movq	16(%rsp), %rdx
	movq	8(%rsp), %rax
	.loc	1 430 6 is_stmt 1
	addq	$72, %rsp
	.cfi_def_cfa_offset 8
	retq
.Ltmp164:
.Lfunc_end61:
	.size	_ZN4core3ptr8non_null26NonNull$LT$$u5b$T$u5d$$GT$20slice_from_raw_parts17h293b001fd3ba1281E, .Lfunc_end61-_ZN4core3ptr8non_null26NonNull$LT$$u5b$T$u5d$$GT$20slice_from_raw_parts17h293b001fd3ba1281E
	.cfi_endproc

	.section	".text._ZN4core3ptr8non_null26NonNull$LT$$u5b$T$u5d$$GT$3len17hf3ea5b3ffdee17a9E","ax",@progbits
	.p2align	4, 0x90
	.type	_ZN4core3ptr8non_null26NonNull$LT$$u5b$T$u5d$$GT$3len17hf3ea5b3ffdee17a9E,@function
_ZN4core3ptr8non_null26NonNull$LT$$u5b$T$u5d$$GT$3len17hf3ea5b3ffdee17a9E:
.Lfunc_begin62:
	.loc	1 451 0
	.cfi_startproc
	subq	$56, %rsp
	.cfi_def_cfa_offset 64
	movq	%rdi, 24(%rsp)
	movq	%rsi, 32(%rsp)
.Ltmp165:
	.loc	1 452 9 prologue_end
	callq	_ZN4core3ptr8non_null16NonNull$LT$T$GT$6as_ptr17h3a91f9411ad3f2e8E
	movq	%rax, 8(%rsp)
	movq	%rdx, 16(%rsp)
	.loc	1 0 9 is_stmt 0
	movq	16(%rsp), %rsi
	movq	8(%rsp), %rdi
	movq	%rdi, 40(%rsp)
	movq	%rsi, 48(%rsp)
.Ltmp166:
	.loc	17 1178 9 is_stmt 1
	callq	_ZN4core3ptr8metadata8metadata17hff0be99522cd72c4E
	movq	%rax, (%rsp)
.Ltmp167:
	.loc	17 0 9 is_stmt 0
	movq	(%rsp), %rax
	.loc	1 453 6 is_stmt 1
	addq	$56, %rsp
	.cfi_def_cfa_offset 8
	retq
.Ltmp168:
.Lfunc_end62:
	.size	_ZN4core3ptr8non_null26NonNull$LT$$u5b$T$u5d$$GT$3len17hf3ea5b3ffdee17a9E, .Lfunc_end62-_ZN4core3ptr8non_null26NonNull$LT$$u5b$T$u5d$$GT$3len17hf3ea5b3ffdee17a9E
	.cfi_endproc

	.section	".text._ZN4core3ptr9const_ptr33_$LT$impl$u20$$BP$const$u20$T$GT$13guaranteed_eq17h7dcebcbb34281dc6E","ax",@progbits
	.p2align	4, 0x90
	.type	_ZN4core3ptr9const_ptr33_$LT$impl$u20$$BP$const$u20$T$GT$13guaranteed_eq17h7dcebcbb34281dc6E,@function
_ZN4core3ptr9const_ptr33_$LT$impl$u20$$BP$const$u20$T$GT$13guaranteed_eq17h7dcebcbb34281dc6E:
.Lfunc_begin63:
	.file	19 "/rustc/f1edd0429582dd29cccacaf50fd134b05593bd9c/library/core/src/ptr/const_ptr.rs"
	.loc	19 418 0
	.cfi_startproc
	subq	$32, %rsp
	.cfi_def_cfa_offset 40
	movq	%rdi, 8(%rsp)
	movq	%rsi, 16(%rsp)
.Ltmp169:
	.loc	19 422 9 prologue_end
	cmpq	%rsi, %rdi
	sete	%al
	andb	$1, %al
	movb	%al, 31(%rsp)
	movb	31(%rsp), %al
	movb	%al, 7(%rsp)
	.loc	19 0 9 is_stmt 0
	movb	7(%rsp), %al
	.loc	19 423 6 is_stmt 1
	andb	$1, %al
	movzbl	%al, %eax
	addq	$32, %rsp
	.cfi_def_cfa_offset 8
	retq
.Ltmp170:
.Lfunc_end63:
	.size	_ZN4core3ptr9const_ptr33_$LT$impl$u20$$BP$const$u20$T$GT$13guaranteed_eq17h7dcebcbb34281dc6E, .Lfunc_end63-_ZN4core3ptr9const_ptr33_$LT$impl$u20$$BP$const$u20$T$GT$13guaranteed_eq17h7dcebcbb34281dc6E
	.cfi_endproc

	.section	".text._ZN4core3ptr9const_ptr33_$LT$impl$u20$$BP$const$u20$T$GT$22copy_to_nonoverlapping17hff23fda8adc2dadeE","ax",@progbits
	.p2align	4, 0x90
	.type	_ZN4core3ptr9const_ptr33_$LT$impl$u20$$BP$const$u20$T$GT$22copy_to_nonoverlapping17hff23fda8adc2dadeE,@function
_ZN4core3ptr9const_ptr33_$LT$impl$u20$$BP$const$u20$T$GT$22copy_to_nonoverlapping17hff23fda8adc2dadeE:
.Lfunc_begin64:
	.loc	19 834 0
	.cfi_startproc
	subq	$24, %rsp
	.cfi_def_cfa_offset 32
	movq	%rdi, (%rsp)
	movq	%rsi, 8(%rsp)
	movq	%rdx, 16(%rsp)
.Ltmp171:
	.loc	19 839 18 prologue_end
	callq	_ZN4core10intrinsics19copy_nonoverlapping17hfa1234651dbe88a5E
	.loc	19 840 6
	addq	$24, %rsp
	.cfi_def_cfa_offset 8
	retq
.Ltmp172:
.Lfunc_end64:
	.size	_ZN4core3ptr9const_ptr33_$LT$impl$u20$$BP$const$u20$T$GT$22copy_to_nonoverlapping17hff23fda8adc2dadeE, .Lfunc_end64-_ZN4core3ptr9const_ptr33_$LT$impl$u20$$BP$const$u20$T$GT$22copy_to_nonoverlapping17hff23fda8adc2dadeE
	.cfi_endproc

	.section	".text._ZN4core3ptr9const_ptr33_$LT$impl$u20$$BP$const$u20$T$GT$4cast17h1a6fa2ab829a1fe1E","ax",@progbits
	.p2align	4, 0x90
	.type	_ZN4core3ptr9const_ptr33_$LT$impl$u20$$BP$const$u20$T$GT$4cast17h1a6fa2ab829a1fe1E,@function
_ZN4core3ptr9const_ptr33_$LT$impl$u20$$BP$const$u20$T$GT$4cast17h1a6fa2ab829a1fe1E:
.Lfunc_begin65:
	.loc	19 47 0
	.cfi_startproc
	pushq	%rax
	.cfi_def_cfa_offset 16
	movq	%rdi, %rax
	movq	%rax, (%rsp)
.Ltmp173:
	.loc	19 49 6 prologue_end
	popq	%rcx
	.cfi_def_cfa_offset 8
	retq
.Ltmp174:
.Lfunc_end65:
	.size	_ZN4core3ptr9const_ptr33_$LT$impl$u20$$BP$const$u20$T$GT$4cast17h1a6fa2ab829a1fe1E, .Lfunc_end65-_ZN4core3ptr9const_ptr33_$LT$impl$u20$$BP$const$u20$T$GT$4cast17h1a6fa2ab829a1fe1E
	.cfi_endproc

	.section	".text._ZN4core3ptr9const_ptr33_$LT$impl$u20$$BP$const$u20$T$GT$7is_null17hf9a9afac8627d613E","ax",@progbits
	.p2align	4, 0x90
	.type	_ZN4core3ptr9const_ptr33_$LT$impl$u20$$BP$const$u20$T$GT$7is_null17hf9a9afac8627d613E,@function
_ZN4core3ptr9const_ptr33_$LT$impl$u20$$BP$const$u20$T$GT$7is_null17hf9a9afac8627d613E:
.Lfunc_begin66:
	.loc	19 37 0
	.cfi_startproc
	subq	$24, %rsp
	.cfi_def_cfa_offset 32
	movq	%rdi, 8(%rsp)
	movq	%rdi, 16(%rsp)
	movq	8(%rsp), %rdi
.Ltmp175:
	.loc	19 40 9 prologue_end
	xorl	%eax, %eax
	movl	%eax, %esi
	callq	_ZN4core3ptr9const_ptr33_$LT$impl$u20$$BP$const$u20$T$GT$13guaranteed_eq17h7dcebcbb34281dc6E
	movb	%al, 7(%rsp)
	.loc	19 0 9 is_stmt 0
	movb	7(%rsp), %al
	.loc	19 41 6 is_stmt 1
	andb	$1, %al
	movzbl	%al, %eax
	addq	$24, %rsp
	.cfi_def_cfa_offset 8
	retq
.Ltmp176:
.Lfunc_end66:
	.size	_ZN4core3ptr9const_ptr33_$LT$impl$u20$$BP$const$u20$T$GT$7is_null17hf9a9afac8627d613E, .Lfunc_end66-_ZN4core3ptr9const_ptr33_$LT$impl$u20$$BP$const$u20$T$GT$7is_null17hf9a9afac8627d613E
	.cfi_endproc

	.section	".text._ZN4core3str21_$LT$impl$u20$str$GT$6as_ptr17hc9f2a9f8b78efa91E","ax",@progbits
	.p2align	4, 0x90
	.type	_ZN4core3str21_$LT$impl$u20$str$GT$6as_ptr17hc9f2a9f8b78efa91E,@function
_ZN4core3str21_$LT$impl$u20$str$GT$6as_ptr17hc9f2a9f8b78efa91E:
.Lfunc_begin67:
	.file	20 "/rustc/f1edd0429582dd29cccacaf50fd134b05593bd9c/library/core/src/str/mod.rs"
	.loc	20 311 0
	.cfi_startproc
	subq	$16, %rsp
	.cfi_def_cfa_offset 24
	movq	%rdi, %rax
	movq	%rax, (%rsp)
	movq	%rsi, 8(%rsp)
.Ltmp177:
	.loc	20 313 6 prologue_end
	addq	$16, %rsp
	.cfi_def_cfa_offset 8
	retq
.Ltmp178:
.Lfunc_end67:
	.size	_ZN4core3str21_$LT$impl$u20$str$GT$6as_ptr17hc9f2a9f8b78efa91E, .Lfunc_end67-_ZN4core3str21_$LT$impl$u20$str$GT$6as_ptr17hc9f2a9f8b78efa91E
	.cfi_endproc

	.section	.text._ZN4core3str8converts19from_utf8_unchecked17h271deee23e5ec5b1E,"ax",@progbits
	.p2align	4, 0x90
	.type	_ZN4core3str8converts19from_utf8_unchecked17h271deee23e5ec5b1E,@function
_ZN4core3str8converts19from_utf8_unchecked17h271deee23e5ec5b1E:
.Lfunc_begin68:
	.file	21 "/rustc/f1edd0429582dd29cccacaf50fd134b05593bd9c/library/core/src/str/converts.rs"
	.loc	21 161 0
	.cfi_startproc
	subq	$48, %rsp
	.cfi_def_cfa_offset 56
	movq	%rdi, 16(%rsp)
	movq	%rsi, 24(%rsp)
.Ltmp179:
	.loc	21 164 14 prologue_end
	movq	%rdi, 32(%rsp)
	movq	%rsi, 40(%rsp)
	movq	32(%rsp), %rax
	movq	%rax, (%rsp)
	movq	40(%rsp), %rax
	movq	%rax, 8(%rsp)
	.loc	21 0 14 is_stmt 0
	movq	8(%rsp), %rdx
	movq	(%rsp), %rax
	.loc	21 165 2 is_stmt 1
	addq	$48, %rsp
	.cfi_def_cfa_offset 8
	retq
.Ltmp180:
.Lfunc_end68:
	.size	_ZN4core3str8converts19from_utf8_unchecked17h271deee23e5ec5b1E, .Lfunc_end68-_ZN4core3str8converts19from_utf8_unchecked17h271deee23e5ec5b1E
	.cfi_endproc

	.section	.text._ZN4core4hint9black_box17h34b8ea8ed134d1ccE,"ax",@progbits
	.p2align	4, 0x90
	.type	_ZN4core4hint9black_box17h34b8ea8ed134d1ccE,@function
_ZN4core4hint9black_box17h34b8ea8ed134d1ccE:
.Lfunc_begin69:
	.file	22 "/rustc/f1edd0429582dd29cccacaf50fd134b05593bd9c/library/core/src/hint.rs"
	.loc	22 157 0
	.cfi_startproc
	pushq	%rax
	.cfi_def_cfa_offset 16
.Ltmp181:
	.loc	22 158 5 prologue_end
	#APP
	#NO_APP
	.loc	22 159 2
	popq	%rax
	.cfi_def_cfa_offset 8
	retq
.Ltmp182:
.Lfunc_end69:
	.size	_ZN4core4hint9black_box17h34b8ea8ed134d1ccE, .Lfunc_end69-_ZN4core4hint9black_box17h34b8ea8ed134d1ccE
	.cfi_endproc

	.section	.text._ZN4core5alloc6layout10size_align17h3eaa54a747c33078E,"ax",@progbits
	.p2align	4, 0x90
	.type	_ZN4core5alloc6layout10size_align17h3eaa54a747c33078E,@function
_ZN4core5alloc6layout10size_align17h3eaa54a747c33078E:
.Lfunc_begin70:
	.file	23 "/rustc/f1edd0429582dd29cccacaf50fd134b05593bd9c/library/core/src/alloc/layout.rs"
	.loc	23 13 0
	.cfi_startproc
	subq	$16, %rsp
	.cfi_def_cfa_offset 24
.Ltmp183:
	.loc	23 14 27 prologue_end
	jmp	.LBB70_2
.LBB70_2:
	.loc	23 14 5 is_stmt 0
	movq	$1, (%rsp)
	movq	$1, 8(%rsp)
	.loc	23 15 2 is_stmt 1
	movq	(%rsp), %rax
	movq	8(%rsp), %rdx
	addq	$16, %rsp
	.cfi_def_cfa_offset 8
	retq
.Ltmp184:
.Lfunc_end70:
	.size	_ZN4core5alloc6layout10size_align17h3eaa54a747c33078E, .Lfunc_end70-_ZN4core5alloc6layout10size_align17h3eaa54a747c33078E
	.cfi_endproc

	.section	.text._ZN4core5alloc6layout6Layout12pad_to_align17h618e8f1d6745f660E,"ax",@progbits
	.p2align	4, 0x90
	.type	_ZN4core5alloc6layout6Layout12pad_to_align17h618e8f1d6745f660E,@function
_ZN4core5alloc6layout6Layout12pad_to_align17h618e8f1d6745f660E:
.Lfunc_begin71:
	.loc	23 272 0
	.cfi_startproc
	subq	$104, %rsp
	.cfi_def_cfa_offset 112
	movq	%rdi, 64(%rsp)
	movq	%rdi, 80(%rsp)
.Ltmp185:
	.loc	23 273 43 prologue_end
	callq	_ZN4core5alloc6layout6Layout5align17h7a1d7d4fe7d0536eE
	movq	%rax, 72(%rsp)
	.loc	23 0 43 is_stmt 0
	movq	72(%rsp), %rsi
	movq	64(%rsp), %rdi
	.loc	23 273 19
	callq	_ZN4core5alloc6layout6Layout18padding_needed_for17h0ef79efb271685b0E
	movq	%rax, 56(%rsp)
	movq	%rax, 88(%rsp)
	.loc	23 0 19
	movq	64(%rsp), %rdi
.Ltmp186:
	.loc	23 278 24 is_stmt 1
	callq	_ZN4core5alloc6layout6Layout4size17h07857c8c487fbb62E
	movq	%rax, 48(%rsp)
	.loc	23 0 24 is_stmt 0
	movq	64(%rsp), %rdi
	movq	56(%rsp), %rcx
	movq	48(%rsp), %rax
	.loc	23 278 24
	addq	%rcx, %rax
	movq	%rax, 32(%rsp)
	movq	%rax, 96(%rsp)
.Ltmp187:
	.loc	23 280 43 is_stmt 1
	callq	_ZN4core5alloc6layout6Layout5align17h7a1d7d4fe7d0536eE
	movq	%rax, 40(%rsp)
	.loc	23 0 43 is_stmt 0
	movq	40(%rsp), %rsi
	movq	32(%rsp), %rdi
	.loc	23 280 9
	callq	_ZN4core5alloc6layout6Layout15from_size_align17h64c241f634813fbfE
	movq	%rax, 16(%rsp)
	movq	%rdx, 24(%rsp)
	.loc	23 0 9
	movq	24(%rsp), %rsi
	movq	16(%rsp), %rdi
	.loc	23 280 9
	leaq	.L__unnamed_5(%rip), %rdx
	callq	_ZN4core6result19Result$LT$T$C$E$GT$6unwrap17haebfcde7643b7111E
	movq	%rax, (%rsp)
	movq	%rdx, 8(%rsp)
.Ltmp188:
	.loc	23 0 9
	movq	8(%rsp), %rdx
	movq	(%rsp), %rax
	.loc	23 281 6 is_stmt 1
	addq	$104, %rsp
	.cfi_def_cfa_offset 8
	retq
.Ltmp189:
.Lfunc_end71:
	.size	_ZN4core5alloc6layout6Layout12pad_to_align17h618e8f1d6745f660E, .Lfunc_end71-_ZN4core5alloc6layout6Layout12pad_to_align17h618e8f1d6745f660E
	.cfi_endproc

	.section	.text._ZN4core5alloc6layout6Layout15from_size_align17h64c241f634813fbfE,"ax",@progbits
	.p2align	4, 0x90
	.type	_ZN4core5alloc6layout6Layout15from_size_align17h64c241f634813fbfE,@function
_ZN4core5alloc6layout6Layout15from_size_align17h64c241f634813fbfE:
.Lfunc_begin72:
	.loc	23 61 0
	.cfi_startproc
	subq	$104, %rsp
	.cfi_def_cfa_offset 112
	movq	%rsi, %rcx
	movq	%rdi, 24(%rsp)
	movq	%rcx, 32(%rsp)
	movq	%rdi, 64(%rsp)
	movq	%rcx, 72(%rsp)
	movq	%rcx, 80(%rsp)
	movq	%rcx, 88(%rsp)
.Ltmp190:
	.loc	11 87 13 prologue_end
	movq	%rcx, %rax
	shrq	%rax
	movabsq	$6148914691236517205, %rdx
	andq	%rdx, %rax
	subq	%rax, %rcx
	movabsq	$3689348814741910323, %rdx
	movq	%rcx, %rax
	andq	%rdx, %rax
	shrq	$2, %rcx
	andq	%rdx, %rcx
	addq	%rcx, %rax
	movq	%rax, %rcx
	shrq	$4, %rcx
	addq	%rcx, %rax
	movabsq	$1085102592571150095, %rcx
	andq	%rcx, %rax
	movabsq	$72340172838076673, %rcx
	imulq	%rcx, %rax
	shrq	$56, %rax
	movq	%rax, 96(%rsp)
	movq	96(%rsp), %rax
.Ltmp191:
	.loc	11 2127 13
	cmpl	$1, %eax
	sete	%al
	movb	%al, 47(%rsp)
.Ltmp192:
	.loc	11 0 13 is_stmt 0
	movb	47(%rsp), %al
	.loc	23 62 12 is_stmt 1
	xorb	$-1, %al
	testb	$1, %al
	jne	.LBB72_3
	.loc	23 0 12 is_stmt 0
	movq	24(%rsp), %rax
	movq	32(%rsp), %rdx
	.loc	23 80 32 is_stmt 1
	subq	$1, %rdx
	.loc	23 80 19 is_stmt 0
	movq	$-1, %rcx
	subq	%rdx, %rcx
	.loc	23 80 12
	cmpq	%rcx, %rax
	ja	.LBB72_6
	jmp	.LBB72_5
.LBB72_3:
	.loc	23 63 20 is_stmt 1
	movq	$0, 56(%rsp)
.LBB72_4:
	.loc	23 87 6
	movq	48(%rsp), %rax
	movq	56(%rsp), %rdx
	addq	$104, %rsp
	.cfi_def_cfa_offset 8
	retq
.LBB72_5:
	.cfi_def_cfa_offset 112
	.loc	23 0 6 is_stmt 0
	movq	32(%rsp), %rsi
	movq	24(%rsp), %rdi
	.loc	23 86 21 is_stmt 1
	callq	_ZN4core5alloc6layout6Layout25from_size_align_unchecked17hdb9fcf4e68a76993E
	movq	%rax, 8(%rsp)
	movq	%rdx, 16(%rsp)
	jmp	.LBB72_7
.LBB72_6:
	.loc	23 81 20
	movq	$0, 56(%rsp)
	.file	24 "/home/jums/hardcore_projects/rust/projects/rust-book/ch4_ownership/ownership/src/main.rs"
	.loc	24 1 1
	jmp	.LBB72_4
.LBB72_7:
	.loc	24 0 1 is_stmt 0
	movq	16(%rsp), %rax
	movq	8(%rsp), %rcx
	.loc	23 86 18 is_stmt 1
	movq	%rcx, 48(%rsp)
	movq	%rax, 56(%rsp)
	.loc	23 87 6
	jmp	.LBB72_4
.Ltmp193:
.Lfunc_end72:
	.size	_ZN4core5alloc6layout6Layout15from_size_align17h64c241f634813fbfE, .Lfunc_end72-_ZN4core5alloc6layout6Layout15from_size_align17h64c241f634813fbfE
	.cfi_endproc

	.section	.text._ZN4core5alloc6layout6Layout18padding_needed_for17h0ef79efb271685b0E,"ax",@progbits
	.p2align	4, 0x90
	.type	_ZN4core5alloc6layout6Layout18padding_needed_for17h0ef79efb271685b0E,@function
_ZN4core5alloc6layout6Layout18padding_needed_for17h0ef79efb271685b0E:
.Lfunc_begin73:
	.loc	23 237 0
	.cfi_startproc
	subq	$152, %rsp
	.cfi_def_cfa_offset 160
	movq	%rsi, 40(%rsp)
	movq	%rdi, 56(%rsp)
	movq	%rsi, 64(%rsp)
.Ltmp194:
	.loc	23 238 19 prologue_end
	callq	_ZN4core5alloc6layout6Layout4size17h07857c8c487fbb62E
	movq	%rax, 48(%rsp)
	movq	%rax, 72(%rsp)
	.loc	23 0 19 is_stmt 0
	movq	40(%rsp), %rcx
	movq	48(%rsp), %rax
	movq	%rax, 88(%rsp)
	movq	%rcx, 96(%rsp)
.Ltmp195:
	.loc	11 1185 13 is_stmt 1
	addq	%rcx, %rax
	movq	%rax, 32(%rsp)
.Ltmp196:
	.loc	11 0 13 is_stmt 0
	movq	32(%rsp), %rax
	movq	%rax, 136(%rsp)
	movq	$1, 144(%rsp)
.Ltmp197:
	.loc	11 1227 13 is_stmt 1
	subq	$1, %rax
	movq	%rax, 24(%rsp)
.Ltmp198:
	.loc	11 0 13 is_stmt 0
	movq	40(%rsp), %rax
	movq	%rax, 120(%rsp)
	movq	$1, 128(%rsp)
.Ltmp199:
	.loc	11 1227 13
	subq	$1, %rax
	movq	%rax, 16(%rsp)
.Ltmp200:
	.loc	11 0 13
	movq	48(%rsp), %rcx
	movq	24(%rsp), %rax
	movq	16(%rsp), %rdx
	.loc	23 259 72 is_stmt 1
	xorq	$-1, %rdx
	.loc	23 259 30 is_stmt 0
	andq	%rdx, %rax
	movq	%rax, 80(%rsp)
	movq	%rax, 104(%rsp)
	movq	%rcx, 112(%rsp)
.Ltmp201:
	.loc	11 1227 13 is_stmt 1
	subq	%rcx, %rax
	movq	%rax, 8(%rsp)
.Ltmp202:
	.loc	11 0 13 is_stmt 0
	movq	8(%rsp), %rax
	.loc	23 261 6 is_stmt 1
	addq	$152, %rsp
	.cfi_def_cfa_offset 8
	retq
.Ltmp203:
.Lfunc_end73:
	.size	_ZN4core5alloc6layout6Layout18padding_needed_for17h0ef79efb271685b0E, .Lfunc_end73-_ZN4core5alloc6layout6Layout18padding_needed_for17h0ef79efb271685b0E
	.cfi_endproc

	.section	.text._ZN4core5alloc6layout6Layout25from_size_align_unchecked17hdb9fcf4e68a76993E,"ax",@progbits
	.p2align	4, 0x90
	.type	_ZN4core5alloc6layout6Layout25from_size_align_unchecked17hdb9fcf4e68a76993E,@function
_ZN4core5alloc6layout6Layout25from_size_align_unchecked17hdb9fcf4e68a76993E:
.Lfunc_begin74:
	.loc	23 99 0
	.cfi_startproc
	subq	$56, %rsp
	.cfi_def_cfa_offset 64
	movq	%rsi, (%rsp)
	movq	%rdi, %rax
	movq	(%rsp), %rdi
	movq	%rax, 8(%rsp)
	movq	%rax, 40(%rsp)
	movq	%rdi, 48(%rsp)
.Ltmp204:
	.loc	23 101 48 prologue_end
	callq	_ZN4core3num7nonzero12NonZeroUsize13new_unchecked17hf0752a2abb10496eE
	movq	%rax, 16(%rsp)
	.loc	23 0 48 is_stmt 0
	movq	16(%rsp), %rax
	movq	8(%rsp), %rcx
	.loc	23 101 9
	movq	%rcx, 24(%rsp)
	movq	%rax, 32(%rsp)
	.loc	23 102 6 is_stmt 1
	movq	24(%rsp), %rax
	movq	32(%rsp), %rdx
	addq	$56, %rsp
	.cfi_def_cfa_offset 8
	retq
.Ltmp205:
.Lfunc_end74:
	.size	_ZN4core5alloc6layout6Layout25from_size_align_unchecked17hdb9fcf4e68a76993E, .Lfunc_end74-_ZN4core5alloc6layout6Layout25from_size_align_unchecked17hdb9fcf4e68a76993E
	.cfi_endproc

	.section	.text._ZN4core5alloc6layout6Layout3new17he94779f5e5748624E,"ax",@progbits
	.p2align	4, 0x90
	.type	_ZN4core5alloc6layout6Layout3new17he94779f5e5748624E,@function
_ZN4core5alloc6layout6Layout3new17he94779f5e5748624E:
.Lfunc_begin75:
	.loc	23 127 0
	.cfi_startproc
	subq	$56, %rsp
	.cfi_def_cfa_offset 64
.Ltmp206:
	.loc	23 128 29 prologue_end
	callq	_ZN4core5alloc6layout10size_align17h3eaa54a747c33078E
	movq	%rax, 24(%rsp)
	movq	%rdx, 32(%rsp)
	.loc	23 0 29 is_stmt 0
	movq	32(%rsp), %rsi
	movq	24(%rsp), %rdi
	.loc	23 128 14
	movq	%rdi, 40(%rsp)
	.loc	23 128 20
	movq	%rsi, 48(%rsp)
.Ltmp207:
	.loc	23 133 18 is_stmt 1
	callq	_ZN4core5alloc6layout6Layout25from_size_align_unchecked17hdb9fcf4e68a76993E
	movq	%rax, 8(%rsp)
	movq	%rdx, 16(%rsp)
.Ltmp208:
	.loc	23 0 18 is_stmt 0
	movq	16(%rsp), %rdx
	movq	8(%rsp), %rax
	.loc	23 134 6 is_stmt 1
	addq	$56, %rsp
	.cfi_def_cfa_offset 8
	retq
.Ltmp209:
.Lfunc_end75:
	.size	_ZN4core5alloc6layout6Layout3new17he94779f5e5748624E, .Lfunc_end75-_ZN4core5alloc6layout6Layout3new17he94779f5e5748624E
	.cfi_endproc

	.section	.text._ZN4core5alloc6layout6Layout4size17h07857c8c487fbb62E,"ax",@progbits
	.p2align	4, 0x90
	.type	_ZN4core5alloc6layout6Layout4size17h07857c8c487fbb62E,@function
_ZN4core5alloc6layout6Layout4size17h07857c8c487fbb62E:
.Lfunc_begin76:
	.loc	23 108 0
	.cfi_startproc
	pushq	%rax
	.cfi_def_cfa_offset 16
	movq	%rdi, (%rsp)
.Ltmp210:
	.loc	23 109 9 prologue_end
	movq	(%rdi), %rax
	.loc	23 110 6
	popq	%rcx
	.cfi_def_cfa_offset 8
	retq
.Ltmp211:
.Lfunc_end76:
	.size	_ZN4core5alloc6layout6Layout4size17h07857c8c487fbb62E, .Lfunc_end76-_ZN4core5alloc6layout6Layout4size17h07857c8c487fbb62E
	.cfi_endproc

	.section	.text._ZN4core5alloc6layout6Layout5align17h7a1d7d4fe7d0536eE,"ax",@progbits
	.p2align	4, 0x90
	.type	_ZN4core5alloc6layout6Layout5align17h7a1d7d4fe7d0536eE,@function
_ZN4core5alloc6layout6Layout5align17h7a1d7d4fe7d0536eE:
.Lfunc_begin77:
	.loc	23 118 0
	.cfi_startproc
	subq	$24, %rsp
	.cfi_def_cfa_offset 32
	movq	%rdi, 16(%rsp)
.Ltmp212:
	.loc	23 119 9 prologue_end
	movq	8(%rdi), %rdi
	callq	_ZN4core3num7nonzero12NonZeroUsize3get17hc8dccf9bdb187044E
	movq	%rax, 8(%rsp)
	.loc	23 0 9 is_stmt 0
	movq	8(%rsp), %rax
	.loc	23 120 6 is_stmt 1
	addq	$24, %rsp
	.cfi_def_cfa_offset 8
	retq
.Ltmp213:
.Lfunc_end77:
	.size	_ZN4core5alloc6layout6Layout5align17h7a1d7d4fe7d0536eE, .Lfunc_end77-_ZN4core5alloc6layout6Layout5align17h7a1d7d4fe7d0536eE
	.cfi_endproc

	.section	.text._ZN4core5alloc6layout6Layout5array17h97961169d90aaefbE,"ax",@progbits
	.p2align	4, 0x90
	.type	_ZN4core5alloc6layout6Layout5array17h97961169d90aaefbE,@function
_ZN4core5alloc6layout6Layout5array17h97961169d90aaefbE:
.Lfunc_begin78:
	.loc	23 401 0
	.cfi_startproc
	subq	$200, %rsp
	.cfi_def_cfa_offset 208
	movq	%rdi, 24(%rsp)
	movq	%rdi, 176(%rsp)
.Ltmp214:
	.loc	23 402 32 prologue_end
	callq	_ZN4core5alloc6layout6Layout3new17he94779f5e5748624E
	movq	%rdx, 144(%rsp)
	movq	%rax, 136(%rsp)
	.loc	23 0 32 is_stmt 0
	movq	24(%rsp), %rdx
	.loc	23 402 32
	leaq	112(%rsp), %rdi
	leaq	136(%rsp), %rsi
	callq	_ZN4core5alloc6layout6Layout6repeat17h2e57dd463aba1a7bE
	leaq	88(%rsp), %rdi
	leaq	112(%rsp), %rsi
	callq	_ZN79_$LT$core..result..Result$LT$T$C$E$GT$$u20$as$u20$core..ops..try_trait..Try$GT$6branch17h8c4dc9c511fd8a68E
	movq	96(%rsp), %rax
	testq	%rax, %rax
	sete	%al
	movzbl	%al, %eax
	jne	.LBB78_5
	jmp	.LBB78_10
.LBB78_10:
	jmp	.LBB78_6
	.cfi_def_cfa_offset 8
	ud2
.LBB78_5:
	.cfi_def_cfa_offset 208
	movq	88(%rsp), %rax
	movq	%rax, 152(%rsp)
	movq	96(%rsp), %rax
	movq	%rax, 160(%rsp)
	movq	104(%rsp), %rax
	movq	%rax, 168(%rsp)
.Ltmp215:
	.loc	23 402 32
	movq	152(%rsp), %rax
	movq	%rax, 64(%rsp)
	movq	160(%rsp), %rax
	movq	%rax, 72(%rsp)
	movq	168(%rsp), %rax
	movq	%rax, 80(%rsp)
.Ltmp216:
	.loc	23 402 14
	movq	64(%rsp), %rcx
	movq	72(%rsp), %rax
	movq	%rcx, 48(%rsp)
	movq	%rax, 56(%rsp)
	.loc	23 402 22
	movq	80(%rsp), %rax
	movq	%rax, 192(%rsp)
.Ltmp217:
	.loc	23 404 12 is_stmt 1
	leaq	48(%rsp), %rdi
	callq	_ZN4core5alloc6layout6Layout12pad_to_align17h618e8f1d6745f660E
	movq	%rax, 8(%rsp)
	movq	%rdx, 16(%rsp)
	jmp	.LBB78_9
.Ltmp218:
.LBB78_6:
	.loc	23 402 32
	callq	_ZN153_$LT$core..result..Result$LT$T$C$F$GT$$u20$as$u20$core..ops..try_trait..FromResidual$LT$core..result..Result$LT$core..convert..Infallible$C$E$GT$$GT$$GT$13from_residual17h80810ec9823e3692E
	movq	%rdx, 40(%rsp)
	movq	%rax, 32(%rsp)
.Ltmp219:
	.loc	23 405 6
	jmp	.LBB78_8
.LBB78_8:
	movq	32(%rsp), %rax
	movq	40(%rsp), %rdx
	addq	$200, %rsp
	.cfi_def_cfa_offset 8
	retq
.LBB78_9:
	.cfi_def_cfa_offset 208
	.loc	23 0 6 is_stmt 0
	movq	16(%rsp), %rax
	movq	8(%rsp), %rcx
.Ltmp220:
	.loc	23 404 9 is_stmt 1
	movq	%rcx, 32(%rsp)
	movq	%rax, 40(%rsp)
.Ltmp221:
	.loc	23 405 6
	jmp	.LBB78_8
.Ltmp222:
.Lfunc_end78:
	.size	_ZN4core5alloc6layout6Layout5array17h97961169d90aaefbE, .Lfunc_end78-_ZN4core5alloc6layout6Layout5array17h97961169d90aaefbE
	.cfi_endproc

	.section	.text._ZN4core5alloc6layout6Layout6repeat17h2e57dd463aba1a7bE,"ax",@progbits
	.p2align	4, 0x90
	.type	_ZN4core5alloc6layout6Layout6repeat17h2e57dd463aba1a7bE,@function
_ZN4core5alloc6layout6Layout6repeat17h2e57dd463aba1a7bE:
.Lfunc_begin79:
	.loc	23 293 0
	.cfi_startproc
	subq	$216, %rsp
	.cfi_def_cfa_offset 224
	movq	%rdx, 88(%rsp)
	movq	%rsi, 96(%rsp)
	movq	%rdi, %rax
	movq	96(%rsp), %rdi
	movq	%rax, 104(%rsp)
	movq	%rax, 112(%rsp)
	movq	%rdi, 168(%rsp)
	movq	%rdx, 176(%rsp)
.Ltmp223:
	.loc	23 298 27 prologue_end
	callq	_ZN4core5alloc6layout6Layout4size17h07857c8c487fbb62E
	movq	%rax, 120(%rsp)
	.loc	23 0 27 is_stmt 0
	movq	96(%rsp), %rdi
	.loc	23 298 65
	callq	_ZN4core5alloc6layout6Layout5align17h7a1d7d4fe7d0536eE
	movq	%rax, 80(%rsp)
	.loc	23 0 65
	movq	80(%rsp), %rsi
	movq	96(%rsp), %rdi
	.loc	23 298 41
	callq	_ZN4core5alloc6layout6Layout18padding_needed_for17h0ef79efb271685b0E
	movq	%rax, 72(%rsp)
	.loc	23 0 41
	movq	88(%rsp), %rsi
	movq	72(%rsp), %rax
	movq	120(%rsp), %rdi
	.loc	23 298 27
	addq	%rax, %rdi
	movq	%rdi, 48(%rsp)
	movq	%rdi, 192(%rsp)
.Ltmp224:
	.loc	23 299 26 is_stmt 1
	callq	_ZN4core3num23_$LT$impl$u20$usize$GT$11checked_mul17h61a6ff353c3d2d0fE
	movq	%rax, 56(%rsp)
	movq	%rdx, 64(%rsp)
	.loc	23 0 26 is_stmt 0
	movq	64(%rsp), %rsi
	movq	56(%rsp), %rdi
	.loc	23 299 26
	callq	_ZN4core6option15Option$LT$T$GT$5ok_or17h71976259192ccbb7E
	movq	%rax, 32(%rsp)
	movq	%rdx, 40(%rsp)
	.loc	23 0 26
	movq	40(%rsp), %rsi
	movq	32(%rsp), %rdi
	.loc	23 299 26
	callq	_ZN79_$LT$core..result..Result$LT$T$C$E$GT$$u20$as$u20$core..ops..try_trait..Try$GT$6branch17hd61e07e8c5959c4fE
	movq	%rdx, 136(%rsp)
	movq	%rax, 128(%rsp)
	movq	128(%rsp), %rax
	testq	%rax, %rax
	je	.LBB79_8
	jmp	.LBB79_14
.LBB79_14:
	jmp	.LBB79_9
	.cfi_def_cfa_offset 8
	ud2
.LBB79_8:
	.cfi_def_cfa_offset 224
	.loc	23 0 26
	movq	96(%rsp), %rdi
	.loc	23 299 26
	movq	136(%rsp), %rax
	movq	%rax, 16(%rsp)
	movq	%rax, 200(%rsp)
.Ltmp225:
	.loc	23 299 26
	movq	%rax, 208(%rsp)
.Ltmp226:
	.loc	23 303 68 is_stmt 1
	callq	_ZN4core5alloc6layout6Layout5align17h7a1d7d4fe7d0536eE
	movq	%rax, 24(%rsp)
	jmp	.LBB79_12
.Ltmp227:
.LBB79_9:
	.loc	23 0 68 is_stmt 0
	movq	104(%rsp), %rdi
.Ltmp228:
	.loc	23 299 26 is_stmt 1
	callq	_ZN153_$LT$core..result..Result$LT$T$C$F$GT$$u20$as$u20$core..ops..try_trait..FromResidual$LT$core..result..Result$LT$core..convert..Infallible$C$E$GT$$GT$$GT$13from_residual17hf78d3187e113235dE
.Ltmp229:
	.loc	23 304 6
	jmp	.LBB79_11
.LBB79_11:
	.loc	23 0 6 is_stmt 0
	movq	112(%rsp), %rax
	.loc	23 304 6
	addq	$216, %rsp
	.cfi_def_cfa_offset 8
	retq
.LBB79_12:
	.cfi_def_cfa_offset 224
	.loc	23 0 6
	movq	24(%rsp), %rsi
	movq	16(%rsp), %rdi
.Ltmp230:
	.loc	23 303 22 is_stmt 1
	callq	_ZN4core5alloc6layout6Layout25from_size_align_unchecked17hdb9fcf4e68a76993E
	movq	%rax, (%rsp)
	movq	%rdx, 8(%rsp)
	.loc	23 0 22 is_stmt 0
	movq	104(%rsp), %rax
	movq	48(%rsp), %rcx
	movq	8(%rsp), %rdx
	movq	(%rsp), %rsi
	.loc	23 303 21
	movq	%rsi, 144(%rsp)
	movq	%rdx, 152(%rsp)
	movq	%rcx, 160(%rsp)
	.loc	23 303 18
	movq	144(%rsp), %rcx
	movq	%rcx, (%rax)
	movq	152(%rsp), %rcx
	movq	%rcx, 8(%rax)
	movq	160(%rsp), %rcx
	movq	%rcx, 16(%rax)
.Ltmp231:
	.loc	23 304 6 is_stmt 1
	jmp	.LBB79_11
.Ltmp232:
.Lfunc_end79:
	.size	_ZN4core5alloc6layout6Layout6repeat17h2e57dd463aba1a7bE, .Lfunc_end79-_ZN4core5alloc6layout6Layout6repeat17h2e57dd463aba1a7bE
	.cfi_endproc

	.section	.text._ZN4core5alloc6layout6Layout8dangling17hf9afcda00d588f03E,"ax",@progbits
	.p2align	4, 0x90
	.type	_ZN4core5alloc6layout6Layout8dangling17hf9afcda00d588f03E,@function
_ZN4core5alloc6layout6Layout8dangling17hf9afcda00d588f03E:
.Lfunc_begin80:
	.loc	23 191 0
	.cfi_startproc
	subq	$24, %rsp
	.cfi_def_cfa_offset 32
	movq	%rdi, 16(%rsp)
.Ltmp233:
	.loc	23 193 41 prologue_end
	callq	_ZN4core5alloc6layout6Layout5align17h7a1d7d4fe7d0536eE
	movq	%rax, 8(%rsp)
	.loc	23 0 41 is_stmt 0
	movq	8(%rsp), %rdi
	.loc	23 193 18
	callq	_ZN4core3ptr8non_null16NonNull$LT$T$GT$13new_unchecked17h32907eb9fb351a26E
	movq	%rax, (%rsp)
	.loc	23 0 18
	movq	(%rsp), %rax
	.loc	23 194 6 is_stmt 1
	addq	$24, %rsp
	.cfi_def_cfa_offset 8
	retq
.Ltmp234:
.Lfunc_end80:
	.size	_ZN4core5alloc6layout6Layout8dangling17hf9afcda00d588f03E, .Lfunc_end80-_ZN4core5alloc6layout6Layout8dangling17hf9afcda00d588f03E
	.cfi_endproc

	.section	.text._ZN4core5clone5Clone5clone17h6f8744364009ed11E,"ax",@progbits
	.p2align	4, 0x90
	.type	_ZN4core5clone5Clone5clone17h6f8744364009ed11E,@function
_ZN4core5clone5Clone5clone17h6f8744364009ed11E:
.Lfunc_begin81:
	.file	25 "/rustc/f1edd0429582dd29cccacaf50fd134b05593bd9c/library/core/src/clone.rs"
	.loc	25 122 0
	.cfi_startproc
	pushq	%rax
	.cfi_def_cfa_offset 16
	movq	%rdi, (%rsp)
.Ltmp235:
	.loc	25 122 5 prologue_end
	popq	%rax
	.cfi_def_cfa_offset 8
	retq
.Ltmp236:
.Lfunc_end81:
	.size	_ZN4core5clone5Clone5clone17h6f8744364009ed11E, .Lfunc_end81-_ZN4core5clone5Clone5clone17h6f8744364009ed11E
	.cfi_endproc

	.section	".text._ZN4core5slice29_$LT$impl$u20$$u5b$T$u5d$$GT$3len17h6d7ccd347c590c36E","ax",@progbits
	.p2align	4, 0x90
	.type	_ZN4core5slice29_$LT$impl$u20$$u5b$T$u5d$$GT$3len17h6d7ccd347c590c36E,@function
_ZN4core5slice29_$LT$impl$u20$$u5b$T$u5d$$GT$3len17h6d7ccd347c590c36E:
.Lfunc_begin82:
	.file	26 "/rustc/f1edd0429582dd29cccacaf50fd134b05593bd9c/library/core/src/slice/mod.rs"
	.loc	26 101 0
	.cfi_startproc
	subq	$32, %rsp
	.cfi_def_cfa_offset 40
	movq	%rdi, 16(%rsp)
	movq	%rsi, 24(%rsp)
.Ltmp237:
	.loc	26 109 18 prologue_end
	movq	%rdi, (%rsp)
	movq	%rsi, 8(%rsp)
	movq	8(%rsp), %rax
	.loc	26 110 6
	addq	$32, %rsp
	.cfi_def_cfa_offset 8
	retq
.Ltmp238:
.Lfunc_end82:
	.size	_ZN4core5slice29_$LT$impl$u20$$u5b$T$u5d$$GT$3len17h6d7ccd347c590c36E, .Lfunc_end82-_ZN4core5slice29_$LT$impl$u20$$u5b$T$u5d$$GT$3len17h6d7ccd347c590c36E
	.cfi_endproc

	.section	".text._ZN4core5slice29_$LT$impl$u20$$u5b$T$u5d$$GT$4iter17h6341e4cca4f07590E","ax",@progbits
	.p2align	4, 0x90
	.type	_ZN4core5slice29_$LT$impl$u20$$u5b$T$u5d$$GT$4iter17h6341e4cca4f07590E,@function
_ZN4core5slice29_$LT$impl$u20$$u5b$T$u5d$$GT$4iter17h6341e4cca4f07590E:
.Lfunc_begin83:
	.loc	26 736 0
	.cfi_startproc
	subq	$40, %rsp
	.cfi_def_cfa_offset 48
	movq	%rdi, 24(%rsp)
	movq	%rsi, 32(%rsp)
.Ltmp239:
	.loc	26 737 9 prologue_end
	callq	_ZN4core5slice4iter13Iter$LT$T$GT$3new17hb8f70cdd8779446eE
	movq	%rax, 8(%rsp)
	movq	%rdx, 16(%rsp)
	.loc	26 0 9 is_stmt 0
	movq	16(%rsp), %rdx
	movq	8(%rsp), %rax
	.loc	26 738 6 is_stmt 1
	addq	$40, %rsp
	.cfi_def_cfa_offset 8
	retq
.Ltmp240:
.Lfunc_end83:
	.size	_ZN4core5slice29_$LT$impl$u20$$u5b$T$u5d$$GT$4iter17h6341e4cca4f07590E, .Lfunc_end83-_ZN4core5slice29_$LT$impl$u20$$u5b$T$u5d$$GT$4iter17h6341e4cca4f07590E
	.cfi_endproc

	.section	".text._ZN4core5slice29_$LT$impl$u20$$u5b$T$u5d$$GT$6as_ptr17he99f72c98051722eE","ax",@progbits
	.p2align	4, 0x90
	.type	_ZN4core5slice29_$LT$impl$u20$$u5b$T$u5d$$GT$6as_ptr17he99f72c98051722eE,@function
_ZN4core5slice29_$LT$impl$u20$$u5b$T$u5d$$GT$6as_ptr17he99f72c98051722eE:
.Lfunc_begin84:
	.loc	26 430 0
	.cfi_startproc
	subq	$16, %rsp
	.cfi_def_cfa_offset 24
	movq	%rdi, %rax
	movq	%rax, (%rsp)
	movq	%rsi, 8(%rsp)
.Ltmp241:
	.loc	26 432 6 prologue_end
	addq	$16, %rsp
	.cfi_def_cfa_offset 8
	retq
.Ltmp242:
.Lfunc_end84:
	.size	_ZN4core5slice29_$LT$impl$u20$$u5b$T$u5d$$GT$6as_ptr17he99f72c98051722eE, .Lfunc_end84-_ZN4core5slice29_$LT$impl$u20$$u5b$T$u5d$$GT$6as_ptr17he99f72c98051722eE
	.cfi_endproc

	.section	.text._ZN4core5slice3raw14from_raw_parts17h8b48d8ac0c1ee4feE,"ax",@progbits
	.p2align	4, 0x90
	.type	_ZN4core5slice3raw14from_raw_parts17h8b48d8ac0c1ee4feE,@function
_ZN4core5slice3raw14from_raw_parts17h8b48d8ac0c1ee4feE:
.Lfunc_begin85:
	.file	27 "/rustc/f1edd0429582dd29cccacaf50fd134b05593bd9c/library/core/src/slice/raw.rs"
	.loc	27 88 0
	.cfi_startproc
	subq	$40, %rsp
	.cfi_def_cfa_offset 48
	movq	%rdi, 24(%rsp)
	movq	%rsi, 32(%rsp)
.Ltmp243:
	.loc	27 95 16 prologue_end
	callq	_ZN4core3ptr20slice_from_raw_parts17h73fc8a3e98dcb71dE
	movq	%rax, 8(%rsp)
	movq	%rdx, 16(%rsp)
	.loc	27 0 16 is_stmt 0
	movq	16(%rsp), %rdx
	movq	8(%rsp), %rax
	.loc	27 96 2 is_stmt 1
	addq	$40, %rsp
	.cfi_def_cfa_offset 8
	retq
.Ltmp244:
.Lfunc_end85:
	.size	_ZN4core5slice3raw14from_raw_parts17h8b48d8ac0c1ee4feE, .Lfunc_end85-_ZN4core5slice3raw14from_raw_parts17h8b48d8ac0c1ee4feE
	.cfi_endproc

	.section	".text._ZN4core5slice4iter13Iter$LT$T$GT$3new17hb8f70cdd8779446eE","ax",@progbits
	.p2align	4, 0x90
	.type	_ZN4core5slice4iter13Iter$LT$T$GT$3new17hb8f70cdd8779446eE,@function
_ZN4core5slice4iter13Iter$LT$T$GT$3new17hb8f70cdd8779446eE:
.Lfunc_begin86:
	.file	28 "/rustc/f1edd0429582dd29cccacaf50fd134b05593bd9c/library/core/src/slice/iter.rs"
	.loc	28 87 0
	.cfi_startproc
	subq	$168, %rsp
	.cfi_def_cfa_offset 176
	movq	%rsi, 24(%rsp)
	movq	%rdi, 64(%rsp)
	movq	%rsi, 72(%rsp)
.Ltmp245:
	.loc	28 88 19 prologue_end
	callq	_ZN4core5slice29_$LT$impl$u20$$u5b$T$u5d$$GT$6as_ptr17he99f72c98051722eE
	movq	%rax, 32(%rsp)
	movq	%rax, 80(%rsp)
	.loc	28 0 19 is_stmt 0
	movq	32(%rsp), %rdi
.Ltmp246:
	.loc	28 91 21 is_stmt 1
	callq	_ZN4core3ptr9const_ptr33_$LT$impl$u20$$BP$const$u20$T$GT$7is_null17hf9a9afac8627d613E
	.loc	28 93 26
	jmp	.LBB86_4
.LBB86_4:
	movl	$1, %eax
	cmpq	$0, %rax
	jne	.LBB86_6
	.loc	28 0 26 is_stmt 0
	movq	24(%rsp), %rcx
	movq	32(%rsp), %rax
	movq	%rax, 88(%rsp)
	movq	%rcx, 96(%rsp)
	movq	%rax, 104(%rsp)
	movq	%rcx, 112(%rsp)
.Ltmp247:
	.loc	19 297 18 is_stmt 1
	addq	%rcx, %rax
	movq	%rax, 120(%rsp)
	movq	120(%rsp), %rax
	movq	%rax, 16(%rsp)
.Ltmp248:
	.loc	28 94 17
	jmp	.LBB86_9
.LBB86_6:
	.loc	28 0 17 is_stmt 0
	movq	24(%rsp), %rcx
	movq	32(%rsp), %rax
	movq	%rax, 128(%rsp)
	movq	%rcx, 136(%rsp)
	movq	%rax, 144(%rsp)
	movq	%rcx, 152(%rsp)
.Ltmp249:
	.loc	19 235 18 is_stmt 1
	addq	%rcx, %rax
	movq	%rax, 160(%rsp)
	movq	160(%rsp), %rax
.Ltmp250:
	.loc	28 96 17
	movq	%rax, 56(%rsp)
	.loc	28 93 23
	jmp	.LBB86_8
.LBB86_8:
	.loc	28 0 23 is_stmt 0
	movq	32(%rsp), %rdi
.Ltmp251:
	.loc	28 99 25 is_stmt 1
	callq	_ZN4core3ptr8non_null16NonNull$LT$T$GT$13new_unchecked17h32907eb9fb351a26E
	movq	%rax, 8(%rsp)
	jmp	.LBB86_10
.Ltmp252:
.LBB86_9:
	.loc	28 0 25 is_stmt 0
	movq	16(%rsp), %rax
	.loc	28 94 17 is_stmt 1
	movq	%rax, 56(%rsp)
	.loc	28 93 23
	jmp	.LBB86_8
.LBB86_10:
	.loc	28 0 23 is_stmt 0
	movq	8(%rsp), %rcx
.Ltmp253:
	.loc	28 99 64 is_stmt 1
	movq	56(%rsp), %rax
	.loc	28 99 13 is_stmt 0
	movq	%rcx, 40(%rsp)
	movq	%rax, 48(%rsp)
.Ltmp254:
	.loc	28 101 6 is_stmt 1
	movq	40(%rsp), %rax
	movq	48(%rsp), %rdx
	addq	$168, %rsp
	.cfi_def_cfa_offset 8
	retq
.Ltmp255:
.Lfunc_end86:
	.size	_ZN4core5slice4iter13Iter$LT$T$GT$3new17hb8f70cdd8779446eE, .Lfunc_end86-_ZN4core5slice4iter13Iter$LT$T$GT$3new17hb8f70cdd8779446eE
	.cfi_endproc

	.section	".text._ZN4core5slice4iter13Iter$LT$T$GT$8as_slice17hcd6673e63bdf40daE","ax",@progbits
	.p2align	4, 0x90
	.type	_ZN4core5slice4iter13Iter$LT$T$GT$8as_slice17hcd6673e63bdf40daE,@function
_ZN4core5slice4iter13Iter$LT$T$GT$8as_slice17hcd6673e63bdf40daE:
.Lfunc_begin87:
	.loc	28 129 0
	.cfi_startproc
	subq	$120, %rsp
	.cfi_def_cfa_offset 128
	movq	%rdi, 16(%rsp)
	movq	%rdi, 56(%rsp)
	movq	%rdi, 72(%rsp)
.Ltmp256:
	.file	29 "/rustc/f1edd0429582dd29cccacaf50fd134b05593bd9c/library/core/src/slice/iter/macros.rs"
	.loc	29 78 41 prologue_end
	movq	(%rdi), %rdi
	callq	_ZN4core3ptr8non_null16NonNull$LT$T$GT$6as_ptr17hf5d86412ce9e3ea7E
	movq	16(%rsp), %rdi
	movq	%rax, 24(%rsp)
	.loc	29 78 60 is_stmt 0
	movq	(%rdi), %rdi
	movq	%rdi, 8(%rsp)
	movq	%rdi, 80(%rsp)
.Ltmp257:
	.loc	29 78 60
	callq	_ZN4core3ptr8non_null16NonNull$LT$T$GT$6as_ptr17hf5d86412ce9e3ea7E
	movq	8(%rsp), %rdi
	movq	%rax, %rcx
	movq	16(%rsp), %rax
	movq	%rcx, 112(%rsp)
	movq	$1, 88(%rsp)
.Ltmp258:
	.loc	29 78 60
	movq	8(%rax), %rax
	movq	%rax, 32(%rsp)
	callq	_ZN4core3ptr8non_null16NonNull$LT$T$GT$6as_ptr17hf5d86412ce9e3ea7E
	movq	24(%rsp), %rdi
	movq	%rax, %rcx
	movq	32(%rsp), %rax
	subq	%rcx, %rax
	movq	%rax, 96(%rsp)
	movq	96(%rsp), %rax
	movq	%rax, 104(%rsp)
.Ltmp259:
	.loc	29 78 60
	movq	%rax, 64(%rsp)
.Ltmp260:
	.loc	29 78 26
	movq	64(%rsp), %rsi
	callq	_ZN4core5slice3raw14from_raw_parts17h8b48d8ac0c1ee4feE
	movq	%rax, 40(%rsp)
	movq	%rdx, 48(%rsp)
.Ltmp261:
	.loc	29 0 26
	movq	48(%rsp), %rdx
	movq	40(%rsp), %rax
	.loc	28 131 6 is_stmt 1
	addq	$120, %rsp
	.cfi_def_cfa_offset 8
	retq
.Ltmp262:
.Lfunc_end87:
	.size	_ZN4core5slice4iter13Iter$LT$T$GT$8as_slice17hcd6673e63bdf40daE, .Lfunc_end87-_ZN4core5slice4iter13Iter$LT$T$GT$8as_slice17hcd6673e63bdf40daE
	.cfi_endproc

	.section	".text._ZN4core6option15Option$LT$T$GT$5ok_or17h496c7ebd5444c5bcE","ax",@progbits
	.p2align	4, 0x90
	.type	_ZN4core6option15Option$LT$T$GT$5ok_or17h496c7ebd5444c5bcE,@function
_ZN4core6option15Option$LT$T$GT$5ok_or17h496c7ebd5444c5bcE:
.Lfunc_begin88:
	.file	30 "/rustc/f1edd0429582dd29cccacaf50fd134b05593bd9c/library/core/src/option.rs"
	.loc	30 926 0
	.cfi_startproc
	subq	$80, %rsp
	.cfi_def_cfa_offset 88
	movq	%r8, (%rsp)
	movq	%rcx, 8(%rsp)
	movq	%rdi, 16(%rsp)
	movq	%rdi, 24(%rsp)
	movq	%rsi, 32(%rsp)
	movq	%rdx, 40(%rsp)
	movq	%rcx, 56(%rsp)
	movq	%r8, 64(%rsp)
.Ltmp263:
	.loc	30 927 15 prologue_end
	movb	$0, 55(%rsp)
	movb	$1, 55(%rsp)
	movq	32(%rsp), %rax
	.loc	30 927 9 is_stmt 0
	testq	%rax, %rax
	je	.LBB88_2
	jmp	.LBB88_7
.LBB88_7:
	jmp	.LBB88_3
	.cfi_def_cfa_offset 8
	.loc	30 927 15
	ud2
.LBB88_2:
	.cfi_def_cfa_offset 88
	.loc	30 0 15
	movq	16(%rsp), %rax
	movq	(%rsp), %rcx
	movq	8(%rsp), %rdx
	.loc	30 929 25 is_stmt 1
	movb	$0, 55(%rsp)
	.loc	30 929 21 is_stmt 0
	movq	%rdx, 8(%rax)
	movq	%rcx, 16(%rax)
	movq	$1, (%rax)
	.loc	30 929 28
	jmp	.LBB88_4
.LBB88_3:
	.loc	30 0 28
	movq	16(%rsp), %rax
	.loc	30 928 18 is_stmt 1
	movq	40(%rsp), %rcx
	movq	%rcx, 72(%rsp)
.Ltmp264:
	.loc	30 928 24 is_stmt 0
	movq	%rcx, 8(%rax)
	movq	$0, (%rax)
.Ltmp265:
.LBB88_4:
	.loc	30 931 5 is_stmt 1
	testb	$1, 55(%rsp)
	jne	.LBB88_6
.LBB88_5:
	.loc	30 0 5 is_stmt 0
	movq	24(%rsp), %rax
	.loc	30 931 6
	addq	$80, %rsp
	.cfi_def_cfa_offset 8
	retq
.LBB88_6:
	.cfi_def_cfa_offset 88
	.loc	30 931 5
	jmp	.LBB88_5
.Ltmp266:
.Lfunc_end88:
	.size	_ZN4core6option15Option$LT$T$GT$5ok_or17h496c7ebd5444c5bcE, .Lfunc_end88-_ZN4core6option15Option$LT$T$GT$5ok_or17h496c7ebd5444c5bcE
	.cfi_endproc

	.section	".text._ZN4core6option15Option$LT$T$GT$5ok_or17h71976259192ccbb7E","ax",@progbits
	.p2align	4, 0x90
	.type	_ZN4core6option15Option$LT$T$GT$5ok_or17h71976259192ccbb7E,@function
_ZN4core6option15Option$LT$T$GT$5ok_or17h71976259192ccbb7E:
.Lfunc_begin89:
	.loc	30 926 0 is_stmt 1
	.cfi_startproc
	subq	$56, %rsp
	.cfi_def_cfa_offset 64
	movq	%rdi, (%rsp)
	movq	%rsi, 8(%rsp)
.Ltmp267:
	.loc	30 927 15 prologue_end
	movb	$0, 39(%rsp)
	movb	$1, 39(%rsp)
	movq	(%rsp), %rax
	.loc	30 927 9 is_stmt 0
	testq	%rax, %rax
	je	.LBB89_2
	jmp	.LBB89_7
.LBB89_7:
	jmp	.LBB89_3
	.cfi_def_cfa_offset 8
	.loc	30 927 15
	ud2
.LBB89_2:
	.cfi_def_cfa_offset 64
	.loc	30 929 25 is_stmt 1
	movb	$0, 39(%rsp)
	.loc	30 929 21 is_stmt 0
	movq	$1, 16(%rsp)
	.loc	30 929 28
	jmp	.LBB89_4
.LBB89_3:
	.loc	30 928 18 is_stmt 1
	movq	8(%rsp), %rax
	movq	%rax, 48(%rsp)
.Ltmp268:
	.loc	30 928 24 is_stmt 0
	movq	%rax, 24(%rsp)
	movq	$0, 16(%rsp)
.Ltmp269:
.LBB89_4:
	.loc	30 931 5 is_stmt 1
	testb	$1, 39(%rsp)
	jne	.LBB89_6
.LBB89_5:
	.loc	30 931 6 is_stmt 0
	movq	16(%rsp), %rax
	movq	24(%rsp), %rdx
	addq	$56, %rsp
	.cfi_def_cfa_offset 8
	retq
.LBB89_6:
	.cfi_def_cfa_offset 64
	.loc	30 931 5
	jmp	.LBB89_5
.Ltmp270:
.Lfunc_end89:
	.size	_ZN4core6option15Option$LT$T$GT$5ok_or17h71976259192ccbb7E, .Lfunc_end89-_ZN4core6option15Option$LT$T$GT$5ok_or17h71976259192ccbb7E
	.cfi_endproc

	.section	".text._ZN4core6option15Option$LT$T$GT$5ok_or17h975c52cee5f7bc06E","ax",@progbits
	.p2align	4, 0x90
	.type	_ZN4core6option15Option$LT$T$GT$5ok_or17h975c52cee5f7bc06E,@function
_ZN4core6option15Option$LT$T$GT$5ok_or17h975c52cee5f7bc06E:
.Lfunc_begin90:
	.loc	30 926 0 is_stmt 1
	.cfi_startproc
	subq	$40, %rsp
	.cfi_def_cfa_offset 48
	movq	%rdi, (%rsp)
.Ltmp271:
	.loc	30 927 15 prologue_end
	movb	$0, 23(%rsp)
	movb	$1, 23(%rsp)
	movq	(%rsp), %rax
	testq	%rax, %rax
	setne	%al
	movzbl	%al, %eax
	.loc	30 927 9 is_stmt 0
	je	.LBB90_2
	jmp	.LBB90_7
.LBB90_7:
	jmp	.LBB90_3
	.cfi_def_cfa_offset 8
	.loc	30 927 15
	ud2
.LBB90_2:
	.cfi_def_cfa_offset 48
	.loc	30 929 25 is_stmt 1
	movb	$0, 23(%rsp)
	.loc	30 929 21 is_stmt 0
	movq	$0, 8(%rsp)
	.loc	30 929 28
	jmp	.LBB90_4
.LBB90_3:
	.loc	30 928 18 is_stmt 1
	movq	(%rsp), %rax
	movq	%rax, 32(%rsp)
.Ltmp272:
	.loc	30 928 24 is_stmt 0
	movq	%rax, 8(%rsp)
.Ltmp273:
.LBB90_4:
	.loc	30 931 5 is_stmt 1
	testb	$1, 23(%rsp)
	jne	.LBB90_6
.LBB90_5:
	.loc	30 931 6 is_stmt 0
	movq	8(%rsp), %rax
	addq	$40, %rsp
	.cfi_def_cfa_offset 8
	retq
.LBB90_6:
	.cfi_def_cfa_offset 48
	.loc	30 931 5
	jmp	.LBB90_5
.Ltmp274:
.Lfunc_end90:
	.size	_ZN4core6option15Option$LT$T$GT$5ok_or17h975c52cee5f7bc06E, .Lfunc_end90-_ZN4core6option15Option$LT$T$GT$5ok_or17h975c52cee5f7bc06E
	.cfi_endproc

	.section	".text._ZN4core6option15Option$LT$T$GT$7is_none17h54bf12f9aa86afe8E","ax",@progbits
	.p2align	4, 0x90
	.type	_ZN4core6option15Option$LT$T$GT$7is_none17h54bf12f9aa86afe8E,@function
_ZN4core6option15Option$LT$T$GT$7is_none17h54bf12f9aa86afe8E:
.Lfunc_begin91:
	.loc	30 569 0 is_stmt 1
	.cfi_startproc
	subq	$24, %rsp
	.cfi_def_cfa_offset 32
	movq	%rdi, 16(%rsp)
.Ltmp275:
	.loc	30 570 10 prologue_end
	callq	_ZN4core6option15Option$LT$T$GT$7is_some17h602217923c534f29E
	movb	%al, 15(%rsp)
	.loc	30 0 10 is_stmt 0
	movb	15(%rsp), %al
	.loc	30 570 9
	xorb	$-1, %al
	.loc	30 571 6 is_stmt 1
	andb	$1, %al
	movzbl	%al, %eax
	addq	$24, %rsp
	.cfi_def_cfa_offset 8
	retq
.Ltmp276:
.Lfunc_end91:
	.size	_ZN4core6option15Option$LT$T$GT$7is_none17h54bf12f9aa86afe8E, .Lfunc_end91-_ZN4core6option15Option$LT$T$GT$7is_none17h54bf12f9aa86afe8E
	.cfi_endproc

	.section	".text._ZN4core6option15Option$LT$T$GT$7is_some17h602217923c534f29E","ax",@progbits
	.p2align	4, 0x90
	.type	_ZN4core6option15Option$LT$T$GT$7is_some17h602217923c534f29E,@function
_ZN4core6option15Option$LT$T$GT$7is_some17h602217923c534f29E:
.Lfunc_begin92:
	.loc	30 549 0
	.cfi_startproc
	subq	$16, %rsp
	.cfi_def_cfa_offset 24
	movq	%rdi, 8(%rsp)
.Ltmp277:
	.loc	30 550 9 prologue_end
	cmpq	$1, (%rdi)
	jne	.LBB92_2
	movb	$1, 7(%rsp)
	jmp	.LBB92_3
.LBB92_2:
	movb	$0, 7(%rsp)
.LBB92_3:
	.loc	30 551 6
	movb	7(%rsp), %al
	andb	$1, %al
	movzbl	%al, %eax
	addq	$16, %rsp
	.cfi_def_cfa_offset 8
	retq
.Ltmp278:
.Lfunc_end92:
	.size	_ZN4core6option15Option$LT$T$GT$7is_some17h602217923c534f29E, .Lfunc_end92-_ZN4core6option15Option$LT$T$GT$7is_some17h602217923c534f29E
	.cfi_endproc

	.section	".text._ZN4core6result19Result$LT$T$C$E$GT$6unwrap17haebfcde7643b7111E","ax",@progbits
	.p2align	4, 0x90
	.type	_ZN4core6result19Result$LT$T$C$E$GT$6unwrap17haebfcde7643b7111E,@function
_ZN4core6result19Result$LT$T$C$E$GT$6unwrap17haebfcde7643b7111E:
.Lfunc_begin93:
	.loc	4 1295 0
	.cfi_startproc
	.cfi_personality 155, DW.ref.rust_eh_personality
	.cfi_lsda 27, .Lexception5
	subq	$72, %rsp
	.cfi_def_cfa_offset 80
	movq	%rdx, 8(%rsp)
	movq	%rdi, 16(%rsp)
	movq	%rsi, 24(%rsp)
.Ltmp282:
	.loc	4 1296 15 prologue_end
	movq	24(%rsp), %rax
	testq	%rax, %rax
	sete	%al
	movzbl	%al, %eax
	.loc	4 1296 9 is_stmt 0
	jne	.LBB93_2
	jmp	.LBB93_8
.LBB93_8:
	jmp	.LBB93_3
	.cfi_def_cfa_offset 8
	.loc	4 1296 15
	ud2
.LBB93_2:
	.cfi_def_cfa_offset 80
	.loc	4 1297 16 is_stmt 1
	movq	16(%rsp), %rax
	movq	24(%rsp), %rdx
	movq	%rax, 56(%rsp)
	movq	%rdx, 64(%rsp)
	.loc	4 1300 6
	addq	$72, %rsp
	.cfi_def_cfa_offset 8
	retq
.LBB93_3:
	.cfi_def_cfa_offset 80
.Ltmp279:
	.loc	4 0 6 is_stmt 0
	movq	8(%rsp), %r8
.Ltmp283:
	.loc	4 1298 23 is_stmt 1
	leaq	.L__unnamed_6(%rip), %rdi
	leaq	.L__unnamed_2(%rip), %rcx
	movq	_ZN4core6result13unwrap_failed17h32ef6b3156e8fc57E@GOTPCREL(%rip), %rax
	movl	$43, %esi
	leaq	32(%rsp), %rdx
	callq	*%rax
.Ltmp280:
	jmp	.LBB93_4
.Ltmp284:
.LBB93_4:
	.loc	4 0 23 is_stmt 0
	ud2
.LBB93_5:
	.loc	4 1298 86
	jmp	.LBB93_7
.LBB93_6:
.Ltmp281:
	.loc	4 0 86
	movq	%rax, %rcx
	movl	%edx, %eax
	movq	%rcx, 40(%rsp)
	movl	%eax, 48(%rsp)
	jmp	.LBB93_5
.LBB93_7:
	.loc	4 1295 5 is_stmt 1
	movq	40(%rsp), %rdi
	callq	_Unwind_Resume@PLT
	ud2
.Ltmp285:
.Lfunc_end93:
	.size	_ZN4core6result19Result$LT$T$C$E$GT$6unwrap17haebfcde7643b7111E, .Lfunc_end93-_ZN4core6result19Result$LT$T$C$E$GT$6unwrap17haebfcde7643b7111E
	.cfi_endproc
	.section	".gcc_except_table._ZN4core6result19Result$LT$T$C$E$GT$6unwrap17haebfcde7643b7111E","a",@progbits
	.p2align	2
GCC_except_table93:
.Lexception5:
	.byte	255
	.byte	255
	.byte	1
	.uleb128 .Lcst_end5-.Lcst_begin5
.Lcst_begin5:
	.uleb128 .Ltmp279-.Lfunc_begin93
	.uleb128 .Ltmp280-.Ltmp279
	.uleb128 .Ltmp281-.Lfunc_begin93
	.byte	0
	.uleb128 .Ltmp280-.Lfunc_begin93
	.uleb128 .Lfunc_end93-.Ltmp280
	.byte	0
	.byte	0
.Lcst_end5:
	.p2align	2

	.section	".text._ZN4core6result19Result$LT$T$C$E$GT$7map_err17h2a04f63c886200ecE","ax",@progbits
	.p2align	4, 0x90
	.type	_ZN4core6result19Result$LT$T$C$E$GT$7map_err17h2a04f63c886200ecE,@function
_ZN4core6result19Result$LT$T$C$E$GT$7map_err17h2a04f63c886200ecE:
.Lfunc_begin94:
	.loc	4 849 0
	.cfi_startproc
	subq	$88, %rsp
	.cfi_def_cfa_offset 96
	movq	%rdi, 16(%rsp)
	movq	%rdi, 24(%rsp)
	movq	%rsi, 32(%rsp)
	movq	%rdx, 40(%rsp)
.Ltmp286:
	.loc	4 850 15 prologue_end
	movb	$0, 55(%rsp)
	movb	$1, 55(%rsp)
	movq	40(%rsp), %rax
	testq	%rax, %rax
	sete	%al
	movzbl	%al, %eax
	.loc	4 850 9 is_stmt 0
	jne	.LBB94_2
	jmp	.LBB94_8
.LBB94_8:
	jmp	.LBB94_3
	.cfi_def_cfa_offset 8
	.loc	4 850 15
	ud2
.LBB94_2:
	.cfi_def_cfa_offset 96
	.loc	4 0 15
	movq	16(%rsp), %rax
	.loc	4 851 16 is_stmt 1
	movq	32(%rsp), %rdx
	movq	40(%rsp), %rcx
	movq	%rdx, 72(%rsp)
	movq	%rcx, 80(%rsp)
.Ltmp287:
	.loc	4 851 22 is_stmt 0
	movq	%rdx, 8(%rax)
	movq	%rcx, 16(%rax)
	movq	$0, (%rax)
.Ltmp288:
	.loc	4 851 26
	jmp	.LBB94_5
.LBB94_3:
.Ltmp289:
	.loc	4 852 27 is_stmt 1
	movb	$0, 55(%rsp)
	callq	_ZN5alloc7raw_vec11finish_grow28_$u7b$$u7b$closure$u7d$$u7d$17h57e334107d3fb449E
	movq	%rax, (%rsp)
	movq	%rdx, 8(%rsp)
	.loc	4 0 27 is_stmt 0
	movq	16(%rsp), %rax
	movq	8(%rsp), %rcx
	movq	(%rsp), %rdx
	.loc	4 852 23
	movq	%rdx, 8(%rax)
	movq	%rcx, 16(%rax)
	movq	$1, (%rax)
.Ltmp290:
.LBB94_5:
	.loc	4 854 5 is_stmt 1
	testb	$1, 55(%rsp)
	jne	.LBB94_7
.LBB94_6:
	.loc	4 0 5 is_stmt 0
	movq	24(%rsp), %rax
	.loc	4 854 6
	addq	$88, %rsp
	.cfi_def_cfa_offset 8
	retq
.LBB94_7:
	.cfi_def_cfa_offset 96
	.loc	4 854 5
	jmp	.LBB94_6
.Ltmp291:
.Lfunc_end94:
	.size	_ZN4core6result19Result$LT$T$C$E$GT$7map_err17h2a04f63c886200ecE, .Lfunc_end94-_ZN4core6result19Result$LT$T$C$E$GT$7map_err17h2a04f63c886200ecE
	.cfi_endproc

	.section	".text._ZN4core6result19Result$LT$T$C$E$GT$7map_err17h4928c60a5ecfd869E","ax",@progbits
	.p2align	4, 0x90
	.type	_ZN4core6result19Result$LT$T$C$E$GT$7map_err17h4928c60a5ecfd869E,@function
_ZN4core6result19Result$LT$T$C$E$GT$7map_err17h4928c60a5ecfd869E:
.Lfunc_begin95:
	.loc	4 849 0 is_stmt 1
	.cfi_startproc
	subq	$104, %rsp
	.cfi_def_cfa_offset 112
	movq	%rcx, 24(%rsp)
	movq	%rdi, 32(%rsp)
	movq	%rdi, 40(%rsp)
	movq	%rsi, 48(%rsp)
	movq	%rdx, 56(%rsp)
	movq	%rcx, 72(%rsp)
.Ltmp292:
	.loc	4 850 15 prologue_end
	movb	$0, 71(%rsp)
	movb	$1, 71(%rsp)
	movq	48(%rsp), %rax
	testq	%rax, %rax
	sete	%al
	movzbl	%al, %eax
	.loc	4 850 9 is_stmt 0
	jne	.LBB95_2
	jmp	.LBB95_8
.LBB95_8:
	jmp	.LBB95_3
	.cfi_def_cfa_offset 8
	.loc	4 850 15
	ud2
.LBB95_2:
	.cfi_def_cfa_offset 112
	.loc	4 0 15
	movq	32(%rsp), %rax
	.loc	4 851 16 is_stmt 1
	movq	48(%rsp), %rdx
	movq	56(%rsp), %rcx
	movq	%rdx, 88(%rsp)
	movq	%rcx, 96(%rsp)
.Ltmp293:
	.loc	4 851 22 is_stmt 0
	movq	%rdx, 8(%rax)
	movq	%rcx, 16(%rax)
	movq	$0, (%rax)
.Ltmp294:
	.loc	4 851 26
	jmp	.LBB95_5
.LBB95_3:
	.loc	4 0 26
	movq	24(%rsp), %rdi
.Ltmp295:
	.loc	4 852 27 is_stmt 1
	movb	$0, 71(%rsp)
	callq	_ZN5alloc7raw_vec11finish_grow28_$u7b$$u7b$closure$u7d$$u7d$17hd0e4eea2582a4fa6E
	movq	%rax, 8(%rsp)
	movq	%rdx, 16(%rsp)
	.loc	4 0 27 is_stmt 0
	movq	32(%rsp), %rax
	movq	16(%rsp), %rcx
	movq	8(%rsp), %rdx
	.loc	4 852 23
	movq	%rdx, 8(%rax)
	movq	%rcx, 16(%rax)
	movq	$1, (%rax)
.Ltmp296:
.LBB95_5:
	.loc	4 854 5 is_stmt 1
	testb	$1, 71(%rsp)
	jne	.LBB95_7
.LBB95_6:
	.loc	4 0 5 is_stmt 0
	movq	40(%rsp), %rax
	.loc	4 854 6
	addq	$104, %rsp
	.cfi_def_cfa_offset 8
	retq
.LBB95_7:
	.cfi_def_cfa_offset 112
	.loc	4 854 5
	jmp	.LBB95_6
.Ltmp297:
.Lfunc_end95:
	.size	_ZN4core6result19Result$LT$T$C$E$GT$7map_err17h4928c60a5ecfd869E, .Lfunc_end95-_ZN4core6result19Result$LT$T$C$E$GT$7map_err17h4928c60a5ecfd869E
	.cfi_endproc

	.section	".text._ZN4core6result19Result$LT$T$C$E$GT$7map_err17hc26a88f81a4c42d4E","ax",@progbits
	.p2align	4, 0x90
	.type	_ZN4core6result19Result$LT$T$C$E$GT$7map_err17hc26a88f81a4c42d4E,@function
_ZN4core6result19Result$LT$T$C$E$GT$7map_err17hc26a88f81a4c42d4E:
.Lfunc_begin96:
	.loc	4 849 0 is_stmt 1
	.cfi_startproc
	subq	$104, %rsp
	.cfi_def_cfa_offset 112
	movq	%rsi, 24(%rsp)
.Ltmp298:
	movq	%rdi, 32(%rsp)
	movq	%rdi, 40(%rsp)
.Ltmp299:
	.loc	4 850 15 prologue_end
	movb	$0, 71(%rsp)
	movb	$1, 71(%rsp)
	movq	(%rsi), %rax
	.loc	4 850 9 is_stmt 0
	testq	%rax, %rax
.Ltmp300:
	je	.LBB96_2
	jmp	.LBB96_8
.Ltmp301:
.LBB96_8:
	jmp	.LBB96_3
.Ltmp302:
	.cfi_def_cfa_offset 8
	.loc	4 850 15
	ud2
.LBB96_2:
	.cfi_def_cfa_offset 112
.Ltmp303:
	.loc	4 0 15
	movq	32(%rsp), %rax
.Ltmp304:
	.loc	4 851 22 is_stmt 1
	movq	$0, (%rax)
.Ltmp305:
	.loc	4 851 26 is_stmt 0
	jmp	.LBB96_5
.Ltmp306:
.LBB96_3:
	.loc	4 0 26
	movq	24(%rsp), %rax
	.loc	4 852 17 is_stmt 1
	movq	8(%rax), %rcx
	movq	16(%rax), %rax
	movq	%rcx, 88(%rsp)
	movq	%rax, 96(%rsp)
.Ltmp307:
	.loc	4 852 27 is_stmt 0
	movb	$0, 71(%rsp)
	movq	%rcx, 48(%rsp)
	movq	%rax, 56(%rsp)
	movq	48(%rsp), %rdi
	movq	56(%rsp), %rsi
	callq	_ZN5alloc7raw_vec14handle_reserve28_$u7b$$u7b$closure$u7d$$u7d$17h3e0c191b3c32014dE
	movq	%rax, 8(%rsp)
	movq	%rdx, 16(%rsp)
.Ltmp308:
	.loc	4 0 27
	movq	32(%rsp), %rax
	movq	16(%rsp), %rcx
	movq	8(%rsp), %rdx
	.loc	4 852 23
	movq	%rdx, 8(%rax)
	movq	%rcx, 16(%rax)
	movq	$1, (%rax)
.Ltmp309:
.LBB96_5:
	.loc	4 854 5 is_stmt 1
	testb	$1, 71(%rsp)
	jne	.LBB96_7
.Ltmp310:
.LBB96_6:
	.loc	4 0 5 is_stmt 0
	movq	40(%rsp), %rax
	.loc	4 854 6
	addq	$104, %rsp
	.cfi_def_cfa_offset 8
	retq
.Ltmp311:
.LBB96_7:
	.cfi_def_cfa_offset 112
	.loc	4 854 5
	jmp	.LBB96_6
.Ltmp312:
.Lfunc_end96:
	.size	_ZN4core6result19Result$LT$T$C$E$GT$7map_err17hc26a88f81a4c42d4E, .Lfunc_end96-_ZN4core6result19Result$LT$T$C$E$GT$7map_err17hc26a88f81a4c42d4E
	.cfi_endproc

	.section	".text._ZN50_$LT$T$u20$as$u20$core..convert..From$LT$T$GT$$GT$4from17h04327ca40f8d73b2E","ax",@progbits
	.p2align	4, 0x90
	.type	_ZN50_$LT$T$u20$as$u20$core..convert..From$LT$T$GT$$GT$4from17h04327ca40f8d73b2E,@function
_ZN50_$LT$T$u20$as$u20$core..convert..From$LT$T$GT$$GT$4from17h04327ca40f8d73b2E:
.Lfunc_begin97:
	.file	31 "/rustc/f1edd0429582dd29cccacaf50fd134b05593bd9c/library/core/src/convert/mod.rs"
	.loc	31 549 0 is_stmt 1
	.cfi_startproc
	pushq	%rax
	.cfi_def_cfa_offset 16
.Ltmp313:
	.loc	31 551 6 prologue_end
	popq	%rax
	.cfi_def_cfa_offset 8
	retq
.Ltmp314:
.Lfunc_end97:
	.size	_ZN50_$LT$T$u20$as$u20$core..convert..From$LT$T$GT$$GT$4from17h04327ca40f8d73b2E, .Lfunc_end97-_ZN50_$LT$T$u20$as$u20$core..convert..From$LT$T$GT$$GT$4from17h04327ca40f8d73b2E
	.cfi_endproc

	.section	".text._ZN50_$LT$T$u20$as$u20$core..convert..From$LT$T$GT$$GT$4from17hd3a949194ab9e1ffE","ax",@progbits
	.p2align	4, 0x90
	.type	_ZN50_$LT$T$u20$as$u20$core..convert..From$LT$T$GT$$GT$4from17hd3a949194ab9e1ffE,@function
_ZN50_$LT$T$u20$as$u20$core..convert..From$LT$T$GT$$GT$4from17hd3a949194ab9e1ffE:
.Lfunc_begin98:
	.loc	31 549 0
	.cfi_startproc
	pushq	%rax
	.cfi_def_cfa_offset 16
.Ltmp315:
	.loc	31 551 6 prologue_end
	popq	%rax
	.cfi_def_cfa_offset 8
	retq
.Ltmp316:
.Lfunc_end98:
	.size	_ZN50_$LT$T$u20$as$u20$core..convert..From$LT$T$GT$$GT$4from17hd3a949194ab9e1ffE, .Lfunc_end98-_ZN50_$LT$T$u20$as$u20$core..convert..From$LT$T$GT$$GT$4from17hd3a949194ab9e1ffE
	.cfi_endproc

	.section	".text._ZN50_$LT$T$u20$as$u20$core..convert..From$LT$T$GT$$GT$4from17hfe5772545c06ad30E","ax",@progbits
	.p2align	4, 0x90
	.type	_ZN50_$LT$T$u20$as$u20$core..convert..From$LT$T$GT$$GT$4from17hfe5772545c06ad30E,@function
_ZN50_$LT$T$u20$as$u20$core..convert..From$LT$T$GT$$GT$4from17hfe5772545c06ad30E:
.Lfunc_begin99:
	.loc	31 549 0
	.cfi_startproc
	subq	$16, %rsp
	.cfi_def_cfa_offset 24
	movq	%rsi, %rdx
	movq	%rdi, %rax
	movq	%rax, (%rsp)
	movq	%rdx, 8(%rsp)
.Ltmp317:
	.loc	31 551 6 prologue_end
	addq	$16, %rsp
	.cfi_def_cfa_offset 8
	retq
.Ltmp318:
.Lfunc_end99:
	.size	_ZN50_$LT$T$u20$as$u20$core..convert..From$LT$T$GT$$GT$4from17hfe5772545c06ad30E, .Lfunc_end99-_ZN50_$LT$T$u20$as$u20$core..convert..From$LT$T$GT$$GT$4from17hfe5772545c06ad30E
	.cfi_endproc

	.section	".text._ZN50_$LT$T$u20$as$u20$core..convert..Into$LT$U$GT$$GT$4into17h1a68ef3ddac55b98E","ax",@progbits
	.p2align	4, 0x90
	.type	_ZN50_$LT$T$u20$as$u20$core..convert..Into$LT$U$GT$$GT$4into17h1a68ef3ddac55b98E,@function
_ZN50_$LT$T$u20$as$u20$core..convert..Into$LT$U$GT$$GT$4into17h1a68ef3ddac55b98E:
.Lfunc_begin100:
	.loc	31 541 0
	.cfi_startproc
	subq	$24, %rsp
	.cfi_def_cfa_offset 32
	movq	%rdi, 16(%rsp)
.Ltmp319:
	.loc	31 542 9 prologue_end
	callq	_ZN119_$LT$core..ptr..non_null..NonNull$LT$T$GT$$u20$as$u20$core..convert..From$LT$core..ptr..unique..Unique$LT$T$GT$$GT$$GT$4from17h4b42f14dfae4f9e3E
	movq	%rax, 8(%rsp)
	.loc	31 0 9 is_stmt 0
	movq	8(%rsp), %rax
	.loc	31 543 6 is_stmt 1
	addq	$24, %rsp
	.cfi_def_cfa_offset 8
	retq
.Ltmp320:
.Lfunc_end100:
	.size	_ZN50_$LT$T$u20$as$u20$core..convert..Into$LT$U$GT$$GT$4into17h1a68ef3ddac55b98E, .Lfunc_end100-_ZN50_$LT$T$u20$as$u20$core..convert..Into$LT$U$GT$$GT$4into17h1a68ef3ddac55b98E
	.cfi_endproc

	.section	".text._ZN50_$LT$T$u20$as$u20$core..convert..Into$LT$U$GT$$GT$4into17ha22c725de67a9ba6E","ax",@progbits
	.p2align	4, 0x90
	.type	_ZN50_$LT$T$u20$as$u20$core..convert..Into$LT$U$GT$$GT$4into17ha22c725de67a9ba6E,@function
_ZN50_$LT$T$u20$as$u20$core..convert..Into$LT$U$GT$$GT$4into17ha22c725de67a9ba6E:
.Lfunc_begin101:
	.loc	31 541 0
	.cfi_startproc
	subq	$40, %rsp
	.cfi_def_cfa_offset 48
	movq	%rdi, 24(%rsp)
	movq	%rsi, 32(%rsp)
.Ltmp321:
	.loc	31 542 9 prologue_end
	callq	_ZN122_$LT$alloc..collections..TryReserveError$u20$as$u20$core..convert..From$LT$alloc..collections..TryReserveErrorKind$GT$$GT$4from17h4631a27ab5b83ef2E
	movq	%rax, 8(%rsp)
	movq	%rdx, 16(%rsp)
	.loc	31 0 9 is_stmt 0
	movq	16(%rsp), %rdx
	movq	8(%rsp), %rax
	.loc	31 543 6 is_stmt 1
	addq	$40, %rsp
	.cfi_def_cfa_offset 8
	retq
.Ltmp322:
.Lfunc_end101:
	.size	_ZN50_$LT$T$u20$as$u20$core..convert..Into$LT$U$GT$$GT$4into17ha22c725de67a9ba6E, .Lfunc_end101-_ZN50_$LT$T$u20$as$u20$core..convert..Into$LT$U$GT$$GT$4into17ha22c725de67a9ba6E
	.cfi_endproc

	.section	".text._ZN52_$LT$$BP$mut$u20$T$u20$as$u20$core..fmt..Pointer$GT$3fmt17ha561cf1871a4fd76E","ax",@progbits
	.p2align	4, 0x90
	.type	_ZN52_$LT$$BP$mut$u20$T$u20$as$u20$core..fmt..Pointer$GT$3fmt17ha561cf1871a4fd76E,@function
_ZN52_$LT$$BP$mut$u20$T$u20$as$u20$core..fmt..Pointer$GT$3fmt17ha561cf1871a4fd76E:
.Lfunc_begin102:
	.loc	10 2221 0
	.cfi_startproc
	subq	$40, %rsp
	.cfi_def_cfa_offset 48
	movq	%rdi, 24(%rsp)
	movq	%rsi, 32(%rsp)
.Ltmp323:
	.loc	10 2222 24 prologue_end
	movq	(%rdi), %rax
	movq	%rax, 16(%rsp)
	.loc	10 2222 9 is_stmt 0
	leaq	16(%rsp), %rdi
	callq	_ZN54_$LT$$BP$const$u20$T$u20$as$u20$core..fmt..Pointer$GT$3fmt17h8a3a67e3165ee3d7E
	movb	%al, 15(%rsp)
	.loc	10 0 9
	movb	15(%rsp), %al
	.loc	10 2223 6 is_stmt 1
	andb	$1, %al
	movzbl	%al, %eax
	addq	$40, %rsp
	.cfi_def_cfa_offset 8
	retq
.Ltmp324:
.Lfunc_end102:
	.size	_ZN52_$LT$$BP$mut$u20$T$u20$as$u20$core..fmt..Pointer$GT$3fmt17ha561cf1871a4fd76E, .Lfunc_end102-_ZN52_$LT$$BP$mut$u20$T$u20$as$u20$core..fmt..Pointer$GT$3fmt17ha561cf1871a4fd76E
	.cfi_endproc

	.section	".text._ZN52_$LT$T$u20$as$u20$alloc..slice..hack..ConvertVec$GT$6to_vec17h1d8f07dc58e0f9baE","ax",@progbits
	.p2align	4, 0x90
	.type	_ZN52_$LT$T$u20$as$u20$alloc..slice..hack..ConvertVec$GT$6to_vec17h1d8f07dc58e0f9baE,@function
_ZN52_$LT$T$u20$as$u20$alloc..slice..hack..ConvertVec$GT$6to_vec17h1d8f07dc58e0f9baE:
.Lfunc_begin103:
	.file	32 "/rustc/f1edd0429582dd29cccacaf50fd134b05593bd9c/library/alloc/src/slice.rs"
	.loc	32 222 0
	.cfi_startproc
	.cfi_personality 155, DW.ref.rust_eh_personality
	.cfi_lsda 27, .Lexception6
	subq	$120, %rsp
	.cfi_def_cfa_offset 128
	movq	%rdx, 32(%rsp)
	movq	%rsi, %rax
	movq	32(%rsp), %rsi
	movq	%rax, 40(%rsp)
	movq	%rdi, %rax
	movq	40(%rsp), %rdi
	movq	%rax, 48(%rsp)
	movq	%rax, 56(%rsp)
	movq	%rdi, 80(%rsp)
	movq	%rsi, 88(%rsp)
.Ltmp343:
	.loc	32 223 17 prologue_end
	movb	$0, 79(%rsp)
	movb	$1, 79(%rsp)
.Ltmp325:
	.loc	32 223 47 is_stmt 0
	callq	_ZN4core5slice29_$LT$impl$u20$$u5b$T$u5d$$GT$3len17h6d7ccd347c590c36E
.Ltmp326:
	movq	%rax, 64(%rsp)
	jmp	.LBB103_1
.LBB103_1:
	.loc	32 0 47
	movq	64(%rsp), %rsi
	movq	48(%rsp), %rdi
	.loc	32 223 56
	movb	$0, 79(%rsp)
.Ltmp327:
	.loc	32 223 25
	callq	_ZN5alloc3vec16Vec$LT$T$C$A$GT$16with_capacity_in17ha2334ecb29cd5f01E
.Ltmp328:
	jmp	.LBB103_4
.LBB103_2:
	.loc	32 232 9 is_stmt 1
	testb	$1, 79(%rsp)
	jne	.LBB103_14
	jmp	.LBB103_13
.LBB103_3:
.Ltmp329:
	.loc	32 0 9 is_stmt 0
	movq	%rax, %rcx
	movl	%edx, %eax
	movq	%rcx, 104(%rsp)
	movl	%eax, 112(%rsp)
	jmp	.LBB103_2
.LBB103_4:
.Ltmp330:
	movq	32(%rsp), %rsi
	movq	40(%rsp), %rdi
.Ltmp344:
	.loc	32 228 17 is_stmt 1
	callq	_ZN4core5slice29_$LT$impl$u20$$u5b$T$u5d$$GT$6as_ptr17he99f72c98051722eE
.Ltmp331:
	movq	%rax, 24(%rsp)
	jmp	.LBB103_5
.LBB103_5:
.Ltmp332:
	.loc	32 0 17 is_stmt 0
	movq	48(%rsp), %rdi
	.loc	32 228 51
	callq	_ZN5alloc3vec16Vec$LT$T$C$A$GT$10as_mut_ptr17h04f8c21769221f87E
.Ltmp333:
	movq	%rax, 16(%rsp)
	jmp	.LBB103_8
.Ltmp345:
.LBB103_6:
	.loc	32 0 51
	movq	48(%rsp), %rdi
	.loc	32 232 9 is_stmt 1
	callq	_ZN4core3ptr46drop_in_place$LT$alloc..vec..Vec$LT$u8$GT$$GT$17h3829b5e11efdd882E
	jmp	.LBB103_2
.LBB103_7:
.Ltmp342:
	.loc	32 0 9 is_stmt 0
	movq	%rax, %rcx
	movl	%edx, %eax
	movq	%rcx, 104(%rsp)
	movl	%eax, 112(%rsp)
	jmp	.LBB103_6
.LBB103_8:
.Ltmp334:
	movq	32(%rsp), %rsi
	movq	40(%rsp), %rdi
.Ltmp346:
	.loc	32 228 67 is_stmt 1
	callq	_ZN4core5slice29_$LT$impl$u20$$u5b$T$u5d$$GT$3len17h6d7ccd347c590c36E
.Ltmp335:
	movq	%rax, 8(%rsp)
	jmp	.LBB103_9
.LBB103_9:
.Ltmp336:
	.loc	32 0 67 is_stmt 0
	movq	8(%rsp), %rdx
	movq	16(%rsp), %rsi
	movq	24(%rsp), %rdi
	.loc	32 228 17
	callq	_ZN4core3ptr9const_ptr33_$LT$impl$u20$$BP$const$u20$T$GT$22copy_to_nonoverlapping17hff23fda8adc2dadeE
.Ltmp337:
	jmp	.LBB103_10
.LBB103_10:
.Ltmp338:
	.loc	32 0 17
	movq	32(%rsp), %rsi
	movq	40(%rsp), %rdi
	.loc	32 229 27 is_stmt 1
	callq	_ZN4core5slice29_$LT$impl$u20$$u5b$T$u5d$$GT$3len17h6d7ccd347c590c36E
.Ltmp339:
	movq	%rax, (%rsp)
	jmp	.LBB103_11
.LBB103_11:
.Ltmp340:
	.loc	32 0 27 is_stmt 0
	movq	(%rsp), %rsi
	movq	48(%rsp), %rdi
	.loc	32 229 17
	callq	_ZN5alloc3vec16Vec$LT$T$C$A$GT$7set_len17hd33e24d8007e5273E
.Ltmp341:
	jmp	.LBB103_12
.Ltmp347:
.LBB103_12:
	.loc	32 0 17
	movq	56(%rsp), %rax
	.loc	32 232 10 is_stmt 1
	addq	$120, %rsp
	.cfi_def_cfa_offset 8
	retq
.LBB103_13:
	.cfi_def_cfa_offset 128
	.loc	32 222 9
	movq	104(%rsp), %rdi
	callq	_Unwind_Resume@PLT
	ud2
.LBB103_14:
	.loc	32 232 9
	jmp	.LBB103_13
.Ltmp348:
.Lfunc_end103:
	.size	_ZN52_$LT$T$u20$as$u20$alloc..slice..hack..ConvertVec$GT$6to_vec17h1d8f07dc58e0f9baE, .Lfunc_end103-_ZN52_$LT$T$u20$as$u20$alloc..slice..hack..ConvertVec$GT$6to_vec17h1d8f07dc58e0f9baE
	.cfi_endproc
	.section	".gcc_except_table._ZN52_$LT$T$u20$as$u20$alloc..slice..hack..ConvertVec$GT$6to_vec17h1d8f07dc58e0f9baE","a",@progbits
	.p2align	2
GCC_except_table103:
.Lexception6:
	.byte	255
	.byte	255
	.byte	1
	.uleb128 .Lcst_end6-.Lcst_begin6
.Lcst_begin6:
	.uleb128 .Ltmp325-.Lfunc_begin103
	.uleb128 .Ltmp328-.Ltmp325
	.uleb128 .Ltmp329-.Lfunc_begin103
	.byte	0
	.uleb128 .Ltmp330-.Lfunc_begin103
	.uleb128 .Ltmp333-.Ltmp330
	.uleb128 .Ltmp342-.Lfunc_begin103
	.byte	0
	.uleb128 .Ltmp333-.Lfunc_begin103
	.uleb128 .Ltmp334-.Ltmp333
	.byte	0
	.byte	0
	.uleb128 .Ltmp334-.Lfunc_begin103
	.uleb128 .Ltmp341-.Ltmp334
	.uleb128 .Ltmp342-.Lfunc_begin103
	.byte	0
	.uleb128 .Ltmp341-.Lfunc_begin103
	.uleb128 .Lfunc_end103-.Ltmp341
	.byte	0
	.byte	0
.Lcst_end6:
	.p2align	2

	.section	".text._ZN54_$LT$$BP$const$u20$T$u20$as$u20$core..fmt..Pointer$GT$3fmt17h0c6899f2a32084ceE","ax",@progbits
	.p2align	4, 0x90
	.type	_ZN54_$LT$$BP$const$u20$T$u20$as$u20$core..fmt..Pointer$GT$3fmt17h0c6899f2a32084ceE,@function
_ZN54_$LT$$BP$const$u20$T$u20$as$u20$core..fmt..Pointer$GT$3fmt17h0c6899f2a32084ceE:
.Lfunc_begin104:
	.loc	10 2193 0
	.cfi_startproc
	subq	$120, %rsp
	.cfi_def_cfa_offset 128
	movq	%rsi, 8(%rsp)
	movq	%rdi, %rax
	movq	8(%rsp), %rdi
	movq	%rax, 16(%rsp)
	movq	%rdi, 24(%rsp)
	movq	%rax, 80(%rsp)
	movq	%rdi, 88(%rsp)
.Ltmp349:
	.loc	10 2194 25 prologue_end
	movq	(%rdi), %rcx
	movq	%rcx, 32(%rsp)
	movq	8(%rdi), %rax
	movq	%rax, 40(%rsp)
	movq	%rcx, 96(%rsp)
	movq	%rax, 104(%rsp)
.Ltmp350:
	.loc	10 2195 25
	movl	48(%rdi), %eax
	movl	%eax, 48(%rsp)
	movl	%eax, 112(%rsp)
.Ltmp351:
	.loc	10 2201 12
	callq	*_ZN4core3fmt9Formatter9alternate17h0c06afc7f7f6a6a7E@GOTPCREL(%rip)
	movb	%al, 55(%rsp)
	.loc	10 0 12 is_stmt 0
	movb	55(%rsp), %al
	.loc	10 2201 12
	testb	$1, %al
	jne	.LBB104_3
	jmp	.LBB104_2
.LBB104_2:
	.loc	10 0 12
	movq	24(%rsp), %rsi
	movq	16(%rsp), %rax
	.loc	10 2208 9 is_stmt 1
	movl	48(%rsi), %ecx
	orl	$4, %ecx
	movl	%ecx, 48(%rsi)
	.loc	10 2210 35
	movq	(%rax), %rax
	.loc	10 2210 34 is_stmt 0
	movq	%rax, 72(%rsp)
	.loc	10 2210 19
	leaq	72(%rsp), %rdi
	callq	*_ZN4core3fmt3num55_$LT$impl$u20$core..fmt..LowerHex$u20$for$u20$usize$GT$3fmt17hd023292d78de1d31E@GOTPCREL(%rip)
	movb	%al, 7(%rsp)
	andb	$1, %al
	movb	%al, 119(%rsp)
	jmp	.LBB104_7
.LBB104_3:
	.loc	10 0 19
	movq	24(%rsp), %rdi
	.loc	10 2202 13 is_stmt 1
	movl	48(%rdi), %eax
	orl	$8, %eax
	movl	%eax, 48(%rdi)
	.loc	10 2204 16
	callq	_ZN4core6option15Option$LT$T$GT$7is_none17h54bf12f9aa86afe8E
	movb	%al, 6(%rsp)
	.loc	10 0 16 is_stmt 0
	movb	6(%rsp), %al
	.loc	10 2204 16
	testb	$1, %al
	jne	.LBB104_6
	jmp	.LBB104_5
.LBB104_5:
	.loc	10 2201 9 is_stmt 1
	jmp	.LBB104_2
.LBB104_6:
	.loc	10 0 9 is_stmt 0
	movq	24(%rsp), %rax
	.loc	10 2205 27 is_stmt 1
	movq	$18, 64(%rsp)
	movq	$1, 56(%rsp)
	.loc	10 2205 17 is_stmt 0
	movq	56(%rsp), %rdx
	movq	64(%rsp), %rcx
	movq	%rdx, (%rax)
	movq	%rcx, 8(%rax)
	.loc	10 2204 13 is_stmt 1
	jmp	.LBB104_5
.LBB104_7:
	.loc	10 0 13 is_stmt 0
	movb	7(%rsp), %al
	movq	24(%rsp), %rcx
	movl	48(%rsp), %edx
	movq	40(%rsp), %rsi
	movq	32(%rsp), %rdi
.Ltmp352:
	.loc	10 2212 9 is_stmt 1
	movq	%rdi, (%rcx)
	movq	%rsi, 8(%rcx)
	.loc	10 2213 9
	movl	%edx, 48(%rcx)
.Ltmp353:
	.loc	10 2216 6
	andb	$1, %al
	movzbl	%al, %eax
	addq	$120, %rsp
	.cfi_def_cfa_offset 8
	retq
.Ltmp354:
.Lfunc_end104:
	.size	_ZN54_$LT$$BP$const$u20$T$u20$as$u20$core..fmt..Pointer$GT$3fmt17h0c6899f2a32084ceE, .Lfunc_end104-_ZN54_$LT$$BP$const$u20$T$u20$as$u20$core..fmt..Pointer$GT$3fmt17h0c6899f2a32084ceE
	.cfi_endproc

	.section	".text._ZN54_$LT$$BP$const$u20$T$u20$as$u20$core..fmt..Pointer$GT$3fmt17h8a3a67e3165ee3d7E","ax",@progbits
	.p2align	4, 0x90
	.type	_ZN54_$LT$$BP$const$u20$T$u20$as$u20$core..fmt..Pointer$GT$3fmt17h8a3a67e3165ee3d7E,@function
_ZN54_$LT$$BP$const$u20$T$u20$as$u20$core..fmt..Pointer$GT$3fmt17h8a3a67e3165ee3d7E:
.Lfunc_begin105:
	.loc	10 2193 0
	.cfi_startproc
	subq	$120, %rsp
	.cfi_def_cfa_offset 128
	movq	%rsi, 8(%rsp)
	movq	%rdi, %rax
	movq	8(%rsp), %rdi
	movq	%rax, 16(%rsp)
	movq	%rdi, 24(%rsp)
	movq	%rax, 80(%rsp)
	movq	%rdi, 88(%rsp)
.Ltmp355:
	.loc	10 2194 25 prologue_end
	movq	(%rdi), %rcx
	movq	%rcx, 32(%rsp)
	movq	8(%rdi), %rax
	movq	%rax, 40(%rsp)
	movq	%rcx, 96(%rsp)
	movq	%rax, 104(%rsp)
.Ltmp356:
	.loc	10 2195 25
	movl	48(%rdi), %eax
	movl	%eax, 48(%rsp)
	movl	%eax, 112(%rsp)
.Ltmp357:
	.loc	10 2201 12
	callq	*_ZN4core3fmt9Formatter9alternate17h0c06afc7f7f6a6a7E@GOTPCREL(%rip)
	movb	%al, 55(%rsp)
	.loc	10 0 12 is_stmt 0
	movb	55(%rsp), %al
	.loc	10 2201 12
	testb	$1, %al
	jne	.LBB105_3
	jmp	.LBB105_2
.LBB105_2:
	.loc	10 0 12
	movq	24(%rsp), %rsi
	movq	16(%rsp), %rax
	.loc	10 2208 9 is_stmt 1
	movl	48(%rsi), %ecx
	orl	$4, %ecx
	movl	%ecx, 48(%rsi)
	.loc	10 2210 35
	movq	(%rax), %rax
	.loc	10 2210 34 is_stmt 0
	movq	%rax, 72(%rsp)
	.loc	10 2210 19
	leaq	72(%rsp), %rdi
	callq	*_ZN4core3fmt3num55_$LT$impl$u20$core..fmt..LowerHex$u20$for$u20$usize$GT$3fmt17hd023292d78de1d31E@GOTPCREL(%rip)
	movb	%al, 7(%rsp)
	andb	$1, %al
	movb	%al, 119(%rsp)
	jmp	.LBB105_7
.LBB105_3:
	.loc	10 0 19
	movq	24(%rsp), %rdi
	.loc	10 2202 13 is_stmt 1
	movl	48(%rdi), %eax
	orl	$8, %eax
	movl	%eax, 48(%rdi)
	.loc	10 2204 16
	callq	_ZN4core6option15Option$LT$T$GT$7is_none17h54bf12f9aa86afe8E
	movb	%al, 6(%rsp)
	.loc	10 0 16 is_stmt 0
	movb	6(%rsp), %al
	.loc	10 2204 16
	testb	$1, %al
	jne	.LBB105_6
	jmp	.LBB105_5
.LBB105_5:
	.loc	10 2201 9 is_stmt 1
	jmp	.LBB105_2
.LBB105_6:
	.loc	10 0 9 is_stmt 0
	movq	24(%rsp), %rax
	.loc	10 2205 27 is_stmt 1
	movq	$18, 64(%rsp)
	movq	$1, 56(%rsp)
	.loc	10 2205 17 is_stmt 0
	movq	56(%rsp), %rdx
	movq	64(%rsp), %rcx
	movq	%rdx, (%rax)
	movq	%rcx, 8(%rax)
	.loc	10 2204 13 is_stmt 1
	jmp	.LBB105_5
.LBB105_7:
	.loc	10 0 13 is_stmt 0
	movb	7(%rsp), %al
	movq	24(%rsp), %rcx
	movl	48(%rsp), %edx
	movq	40(%rsp), %rsi
	movq	32(%rsp), %rdi
.Ltmp358:
	.loc	10 2212 9 is_stmt 1
	movq	%rdi, (%rcx)
	movq	%rsi, 8(%rcx)
	.loc	10 2213 9
	movl	%edx, 48(%rcx)
.Ltmp359:
	.loc	10 2216 6
	andb	$1, %al
	movzbl	%al, %eax
	addq	$120, %rsp
	.cfi_def_cfa_offset 8
	retq
.Ltmp360:
.Lfunc_end105:
	.size	_ZN54_$LT$$BP$const$u20$T$u20$as$u20$core..fmt..Pointer$GT$3fmt17h8a3a67e3165ee3d7E, .Lfunc_end105-_ZN54_$LT$$BP$const$u20$T$u20$as$u20$core..fmt..Pointer$GT$3fmt17h8a3a67e3165ee3d7E
	.cfi_endproc

	.section	".text._ZN54_$LT$$LP$$RP$$u20$as$u20$std..process..Termination$GT$6report17h04901c7e38715a08E","ax",@progbits
	.p2align	4, 0x90
	.type	_ZN54_$LT$$LP$$RP$$u20$as$u20$std..process..Termination$GT$6report17h04901c7e38715a08E,@function
_ZN54_$LT$$LP$$RP$$u20$as$u20$std..process..Termination$GT$6report17h04901c7e38715a08E:
.Lfunc_begin106:
	.file	33 "/rustc/f1edd0429582dd29cccacaf50fd134b05593bd9c/library/std/src/process.rs"
	.loc	33 2019 0
	.cfi_startproc
	subq	$24, %rsp
	.cfi_def_cfa_offset 32
.Ltmp361:
	.loc	33 2020 9 prologue_end
	xorl	%edi, %edi
	callq	_ZN68_$LT$std..process..ExitCode$u20$as$u20$std..process..Termination$GT$6report17hfcb280273d4805fdE
	movl	%eax, 12(%rsp)
	.loc	33 0 9 is_stmt 0
	movl	12(%rsp), %eax
	.loc	33 2021 6 is_stmt 1
	addq	$24, %rsp
	.cfi_def_cfa_offset 8
	retq
.Ltmp362:
.Lfunc_end106:
	.size	_ZN54_$LT$$LP$$RP$$u20$as$u20$std..process..Termination$GT$6report17h04901c7e38715a08E, .Lfunc_end106-_ZN54_$LT$$LP$$RP$$u20$as$u20$std..process..Termination$GT$6report17h04901c7e38715a08E
	.cfi_endproc

	.section	.text._ZN5alloc11collections15TryReserveError4kind17h6c55049921d24f40E,"ax",@progbits
	.p2align	4, 0x90
	.type	_ZN5alloc11collections15TryReserveError4kind17h6c55049921d24f40E,@function
_ZN5alloc11collections15TryReserveError4kind17h6c55049921d24f40E:
.Lfunc_begin107:
	.loc	2 73 0
	.cfi_startproc
	subq	$24, %rsp
	.cfi_def_cfa_offset 32
	movq	%rdi, 16(%rsp)
.Ltmp363:
	.loc	2 74 9 prologue_end
	callq	_ZN78_$LT$alloc..collections..TryReserveErrorKind$u20$as$u20$core..clone..Clone$GT$5clone17h4bf0734ddc72c0e1E
	movq	%rax, (%rsp)
	movq	%rdx, 8(%rsp)
	.loc	2 0 9 is_stmt 0
	movq	8(%rsp), %rdx
	movq	(%rsp), %rax
	.loc	2 75 6 is_stmt 1
	addq	$24, %rsp
	.cfi_def_cfa_offset 8
	retq
.Ltmp364:
.Lfunc_end107:
	.size	_ZN5alloc11collections15TryReserveError4kind17h6c55049921d24f40E, .Lfunc_end107-_ZN5alloc11collections15TryReserveError4kind17h6c55049921d24f40E
	.cfi_endproc

	.section	".text._ZN5alloc3str56_$LT$impl$u20$alloc..borrow..ToOwned$u20$for$u20$str$GT$8to_owned17h47c8ca2d007db39fE","ax",@progbits
	.p2align	4, 0x90
	.type	_ZN5alloc3str56_$LT$impl$u20$alloc..borrow..ToOwned$u20$for$u20$str$GT$8to_owned17h47c8ca2d007db39fE,@function
_ZN5alloc3str56_$LT$impl$u20$alloc..borrow..ToOwned$u20$for$u20$str$GT$8to_owned17h47c8ca2d007db39fE:
.Lfunc_begin108:
	.file	34 "/rustc/f1edd0429582dd29cccacaf50fd134b05593bd9c/library/alloc/src/str.rs"
	.loc	34 218 0
	.cfi_startproc
	subq	$104, %rsp
	.cfi_def_cfa_offset 112
	movq	%rdi, (%rsp)
	movq	%rdi, 8(%rsp)
	movq	%rsi, 56(%rsp)
	movq	%rdx, 64(%rsp)
	movq	%rsi, 72(%rsp)
	movq	%rdx, 80(%rsp)
.Ltmp365:
	.loc	20 238 18 prologue_end
	movq	%rsi, 88(%rsp)
	movq	%rdx, 96(%rsp)
	movq	88(%rsp), %rax
	movq	%rax, 16(%rsp)
	movq	96(%rsp), %rax
	movq	%rax, 24(%rsp)
.Ltmp366:
	.loc	20 0 18 is_stmt 0
	movq	24(%rsp), %rdx
	movq	16(%rsp), %rsi
	.loc	34 219 46 is_stmt 1
	leaq	32(%rsp), %rdi
	callq	_ZN5alloc5slice64_$LT$impl$u20$alloc..borrow..ToOwned$u20$for$u20$$u5b$T$u5d$$GT$8to_owned17h1a333226e189e50dE
	.loc	34 0 46 is_stmt 0
	movq	(%rsp), %rdi
	.loc	34 219 18
	leaq	32(%rsp), %rsi
	callq	_ZN5alloc6string6String19from_utf8_unchecked17h0ff953733898617dE
	.loc	34 0 18
	movq	8(%rsp), %rax
	.loc	34 220 6 is_stmt 1
	addq	$104, %rsp
	.cfi_def_cfa_offset 8
	retq
.Ltmp367:
.Lfunc_end108:
	.size	_ZN5alloc3str56_$LT$impl$u20$alloc..borrow..ToOwned$u20$for$u20$str$GT$8to_owned17h47c8ca2d007db39fE, .Lfunc_end108-_ZN5alloc3str56_$LT$impl$u20$alloc..borrow..ToOwned$u20$for$u20$str$GT$8to_owned17h47c8ca2d007db39fE
	.cfi_endproc

	.section	".text._ZN5alloc3vec12Vec$LT$T$GT$3new17h03ac8c5b1947512cE","ax",@progbits
	.p2align	4, 0x90
	.type	_ZN5alloc3vec12Vec$LT$T$GT$3new17h03ac8c5b1947512cE,@function
_ZN5alloc3vec12Vec$LT$T$GT$3new17h03ac8c5b1947512cE:
.Lfunc_begin109:
	.file	35 "/rustc/f1edd0429582dd29cccacaf50fd134b05593bd9c/library/alloc/src/vec/mod.rs"
	.loc	35 424 0
	.cfi_startproc
	movq	%rdi, %rax
.Ltmp368:
	.loc	35 425 9 prologue_end
	movq	.L__unnamed_7(%rip), %rdx
	movq	.L__unnamed_7+8(%rip), %rcx
	movq	%rdx, (%rdi)
	movq	%rcx, 8(%rdi)
	movq	$0, 16(%rdi)
	.loc	35 426 6
	retq
.Ltmp369:
.Lfunc_end109:
	.size	_ZN5alloc3vec12Vec$LT$T$GT$3new17h03ac8c5b1947512cE, .Lfunc_end109-_ZN5alloc3vec12Vec$LT$T$GT$3new17h03ac8c5b1947512cE
	.cfi_endproc

	.section	".text._ZN5alloc3vec16Vec$LT$T$C$A$GT$10as_mut_ptr17h04f8c21769221f87E","ax",@progbits
	.p2align	4, 0x90
	.type	_ZN5alloc3vec16Vec$LT$T$C$A$GT$10as_mut_ptr17h04f8c21769221f87E,@function
_ZN5alloc3vec16Vec$LT$T$C$A$GT$10as_mut_ptr17h04f8c21769221f87E:
.Lfunc_begin110:
	.loc	35 1167 0
	.cfi_startproc
	subq	$24, %rsp
	.cfi_def_cfa_offset 32
	movq	%rdi, 8(%rsp)
.Ltmp370:
	.loc	35 1170 19 prologue_end
	callq	_ZN5alloc7raw_vec19RawVec$LT$T$C$A$GT$3ptr17h02c6aab41d5934b5E
	movq	%rax, (%rsp)
	movq	%rax, 16(%rsp)
	.loc	35 0 19 is_stmt 0
	movq	(%rsp), %rdi
.Ltmp371:
	.loc	35 1172 21 is_stmt 1
	callq	_ZN4core3ptr7mut_ptr31_$LT$impl$u20$$BP$mut$u20$T$GT$7is_null17he20e0c612bca676eE
.Ltmp372:
	.loc	35 0 21 is_stmt 0
	movq	(%rsp), %rax
	.loc	35 1175 6 is_stmt 1
	addq	$24, %rsp
	.cfi_def_cfa_offset 8
	retq
.Ltmp373:
.Lfunc_end110:
	.size	_ZN5alloc3vec16Vec$LT$T$C$A$GT$10as_mut_ptr17h04f8c21769221f87E, .Lfunc_end110-_ZN5alloc3vec16Vec$LT$T$C$A$GT$10as_mut_ptr17h04f8c21769221f87E
	.cfi_endproc

	.section	".text._ZN5alloc3vec16Vec$LT$T$C$A$GT$15append_elements17h9c0441e72c2e7473E","ax",@progbits
	.p2align	4, 0x90
	.type	_ZN5alloc3vec16Vec$LT$T$C$A$GT$15append_elements17h9c0441e72c2e7473E,@function
_ZN5alloc3vec16Vec$LT$T$C$A$GT$15append_elements17h9c0441e72c2e7473E:
.Lfunc_begin111:
	.loc	35 1757 0
	.cfi_startproc
	subq	$152, %rsp
	.cfi_def_cfa_offset 160
	movq	%rdx, 40(%rsp)
	movq	%rsi, %rax
	movq	40(%rsp), %rsi
	movq	%rdi, 48(%rsp)
	movq	%rax, 56(%rsp)
	movq	%rsi, 64(%rsp)
	movq	%rdi, 72(%rsp)
	movq	%rax, 80(%rsp)
	movq	%rsi, 88(%rsp)
.Ltmp374:
	.loc	35 1758 30 prologue_end
	movq	%rsi, 96(%rsp)
.Ltmp375:
	.loc	35 1759 9
	callq	_ZN5alloc3vec16Vec$LT$T$C$A$GT$7reserve17h196b6fba7af87f37E
	.loc	35 0 9 is_stmt 0
	movq	48(%rsp), %rdi
	.loc	35 1760 19 is_stmt 1
	callq	_ZN5alloc3vec16Vec$LT$T$C$A$GT$3len17hccc0ff5dbde64ea1E
	movq	%rax, 32(%rsp)
	movq	%rax, 104(%rsp)
	.loc	35 0 19 is_stmt 0
	movq	48(%rsp), %rdi
	movq	56(%rsp), %rax
	movq	%rax, 16(%rsp)
.Ltmp376:
	.loc	35 1761 62 is_stmt 1
	callq	_ZN5alloc3vec16Vec$LT$T$C$A$GT$10as_mut_ptr17h04f8c21769221f87E
	movq	%rax, 24(%rsp)
	.loc	35 0 62 is_stmt 0
	movq	32(%rsp), %rcx
	movq	24(%rsp), %rax
	movq	%rax, 112(%rsp)
	movq	%rcx, 120(%rsp)
	movq	%rax, 128(%rsp)
	movq	%rcx, 136(%rsp)
.Ltmp377:
	.loc	17 242 18 is_stmt 1
	addq	%rcx, %rax
	movq	%rax, 144(%rsp)
	movq	144(%rsp), %rax
	movq	%rax, 8(%rsp)
.Ltmp378:
	.loc	17 0 18 is_stmt 0
	movq	64(%rsp), %rdx
	movq	8(%rsp), %rsi
	movq	16(%rsp), %rdi
	.loc	35 1761 18 is_stmt 1
	callq	_ZN4core10intrinsics19copy_nonoverlapping17hfa1234651dbe88a5E
	.loc	35 0 18 is_stmt 0
	movq	48(%rsp), %rax
	movq	64(%rsp), %rcx
	.loc	35 1762 9 is_stmt 1
	addq	16(%rax), %rcx
	movq	%rcx, 16(%rax)
.Ltmp379:
	.loc	35 1763 6
	addq	$152, %rsp
	.cfi_def_cfa_offset 8
	retq
.Ltmp380:
.Lfunc_end111:
	.size	_ZN5alloc3vec16Vec$LT$T$C$A$GT$15append_elements17h9c0441e72c2e7473E, .Lfunc_end111-_ZN5alloc3vec16Vec$LT$T$C$A$GT$15append_elements17h9c0441e72c2e7473E
	.cfi_endproc

	.section	".text._ZN5alloc3vec16Vec$LT$T$C$A$GT$16with_capacity_in17ha2334ecb29cd5f01E","ax",@progbits
	.p2align	4, 0x90
	.type	_ZN5alloc3vec16Vec$LT$T$C$A$GT$16with_capacity_in17ha2334ecb29cd5f01E,@function
_ZN5alloc3vec16Vec$LT$T$C$A$GT$16with_capacity_in17ha2334ecb29cd5f01E:
.Lfunc_begin112:
	.loc	35 608 0
	.cfi_startproc
	subq	$56, %rsp
	.cfi_def_cfa_offset 64
	movq	%rsi, (%rsp)
	movq	%rdi, %rax
	movq	(%rsp), %rdi
	movq	%rax, 8(%rsp)
	movq	%rax, 16(%rsp)
	movq	%rdi, 40(%rsp)
.Ltmp381:
	.loc	35 609 20 prologue_end
	callq	_ZN5alloc7raw_vec19RawVec$LT$T$C$A$GT$16with_capacity_in17h47142736d9f32520E
	movq	%rax, 24(%rsp)
	movq	%rdx, 32(%rsp)
	.loc	35 0 20 is_stmt 0
	movq	16(%rsp), %rax
	movq	8(%rsp), %rcx
	movq	32(%rsp), %rdx
	movq	24(%rsp), %rsi
	.loc	35 609 9
	movq	%rsi, (%rcx)
	movq	%rdx, 8(%rcx)
	movq	$0, 16(%rcx)
	.loc	35 610 6 is_stmt 1
	addq	$56, %rsp
	.cfi_def_cfa_offset 8
	retq
.Ltmp382:
.Lfunc_end112:
	.size	_ZN5alloc3vec16Vec$LT$T$C$A$GT$16with_capacity_in17ha2334ecb29cd5f01E, .Lfunc_end112-_ZN5alloc3vec16Vec$LT$T$C$A$GT$16with_capacity_in17ha2334ecb29cd5f01E
	.cfi_endproc

	.section	".text._ZN5alloc3vec16Vec$LT$T$C$A$GT$17extend_from_slice17h37a3ab1a830128fbE","ax",@progbits
	.p2align	4, 0x90
	.type	_ZN5alloc3vec16Vec$LT$T$C$A$GT$17extend_from_slice17h37a3ab1a830128fbE,@function
_ZN5alloc3vec16Vec$LT$T$C$A$GT$17extend_from_slice17h37a3ab1a830128fbE:
.Lfunc_begin113:
	.loc	35 2188 0
	.cfi_startproc
	subq	$72, %rsp
	.cfi_def_cfa_offset 80
	movq	%rdx, 8(%rsp)
	movq	%rsi, %rax
	movq	8(%rsp), %rsi
	movq	%rax, 16(%rsp)
	movq	%rdi, %rax
	movq	16(%rsp), %rdi
	movq	%rax, 24(%rsp)
	movq	%rax, 48(%rsp)
	movq	%rdi, 56(%rsp)
	movq	%rsi, 64(%rsp)
.Ltmp383:
	.loc	35 2189 26 prologue_end
	callq	_ZN4core5slice29_$LT$impl$u20$$u5b$T$u5d$$GT$4iter17h6341e4cca4f07590E
	movq	%rax, 32(%rsp)
	movq	%rdx, 40(%rsp)
	.loc	35 0 26 is_stmt 0
	movq	40(%rsp), %rdx
	movq	32(%rsp), %rsi
	movq	24(%rsp), %rdi
	.loc	35 2189 9
	callq	_ZN132_$LT$alloc..vec..Vec$LT$T$C$A$GT$$u20$as$u20$alloc..vec..spec_extend..SpecExtend$LT$$RF$T$C$core..slice..iter..Iter$LT$T$GT$$GT$$GT$11spec_extend17h907e5c29f4d2bccfE
	.loc	35 2190 6 is_stmt 1
	addq	$72, %rsp
	.cfi_def_cfa_offset 8
	retq
.Ltmp384:
.Lfunc_end113:
	.size	_ZN5alloc3vec16Vec$LT$T$C$A$GT$17extend_from_slice17h37a3ab1a830128fbE, .Lfunc_end113-_ZN5alloc3vec16Vec$LT$T$C$A$GT$17extend_from_slice17h37a3ab1a830128fbE
	.cfi_endproc

	.section	".text._ZN5alloc3vec16Vec$LT$T$C$A$GT$3len17hccc0ff5dbde64ea1E","ax",@progbits
	.p2align	4, 0x90
	.type	_ZN5alloc3vec16Vec$LT$T$C$A$GT$3len17hccc0ff5dbde64ea1E,@function
_ZN5alloc3vec16Vec$LT$T$C$A$GT$3len17hccc0ff5dbde64ea1E:
.Lfunc_begin114:
	.loc	35 1854 0
	.cfi_startproc
	pushq	%rax
	.cfi_def_cfa_offset 16
	movq	%rdi, (%rsp)
.Ltmp385:
	.loc	35 1855 9 prologue_end
	movq	16(%rdi), %rax
	.loc	35 1856 6
	popq	%rcx
	.cfi_def_cfa_offset 8
	retq
.Ltmp386:
.Lfunc_end114:
	.size	_ZN5alloc3vec16Vec$LT$T$C$A$GT$3len17hccc0ff5dbde64ea1E, .Lfunc_end114-_ZN5alloc3vec16Vec$LT$T$C$A$GT$3len17hccc0ff5dbde64ea1E
	.cfi_endproc

	.section	".text._ZN5alloc3vec16Vec$LT$T$C$A$GT$6as_ptr17h197db6d0a447f657E","ax",@progbits
	.p2align	4, 0x90
	.type	_ZN5alloc3vec16Vec$LT$T$C$A$GT$6as_ptr17h197db6d0a447f657E,@function
_ZN5alloc3vec16Vec$LT$T$C$A$GT$6as_ptr17h197db6d0a447f657E:
.Lfunc_begin115:
	.loc	35 1131 0
	.cfi_startproc
	subq	$24, %rsp
	.cfi_def_cfa_offset 32
	movq	%rdi, 8(%rsp)
.Ltmp387:
	.loc	35 1134 19 prologue_end
	callq	_ZN5alloc7raw_vec19RawVec$LT$T$C$A$GT$3ptr17h02c6aab41d5934b5E
	movq	%rax, (%rsp)
	movq	%rax, 16(%rsp)
	.loc	35 0 19 is_stmt 0
	movq	(%rsp), %rdi
.Ltmp388:
	.loc	35 1136 21 is_stmt 1
	callq	_ZN4core3ptr7mut_ptr31_$LT$impl$u20$$BP$mut$u20$T$GT$7is_null17he20e0c612bca676eE
.Ltmp389:
	.loc	35 0 21 is_stmt 0
	movq	(%rsp), %rax
	.loc	35 1139 6 is_stmt 1
	addq	$24, %rsp
	.cfi_def_cfa_offset 8
	retq
.Ltmp390:
.Lfunc_end115:
	.size	_ZN5alloc3vec16Vec$LT$T$C$A$GT$6as_ptr17h197db6d0a447f657E, .Lfunc_end115-_ZN5alloc3vec16Vec$LT$T$C$A$GT$6as_ptr17h197db6d0a447f657E
	.cfi_endproc

	.section	".text._ZN5alloc3vec16Vec$LT$T$C$A$GT$7reserve17h196b6fba7af87f37E","ax",@progbits
	.p2align	4, 0x90
	.type	_ZN5alloc3vec16Vec$LT$T$C$A$GT$7reserve17h196b6fba7af87f37E,@function
_ZN5alloc3vec16Vec$LT$T$C$A$GT$7reserve17h196b6fba7af87f37E:
.Lfunc_begin116:
	.loc	35 808 0
	.cfi_startproc
	subq	$24, %rsp
	.cfi_def_cfa_offset 32
	movq	%rsi, %rdx
	movq	%rdi, %rax
	movq	%rax, 8(%rsp)
	movq	%rdx, 16(%rsp)
.Ltmp391:
	.loc	35 809 9 prologue_end
	movq	%rax, %rdi
	.loc	35 809 26 is_stmt 0
	movq	16(%rax), %rsi
	.loc	35 809 9
	callq	_ZN5alloc7raw_vec19RawVec$LT$T$C$A$GT$7reserve17h787c4d7db6755619E
	.loc	35 810 6 is_stmt 1
	addq	$24, %rsp
	.cfi_def_cfa_offset 8
	retq
.Ltmp392:
.Lfunc_end116:
	.size	_ZN5alloc3vec16Vec$LT$T$C$A$GT$7reserve17h196b6fba7af87f37E, .Lfunc_end116-_ZN5alloc3vec16Vec$LT$T$C$A$GT$7reserve17h196b6fba7af87f37E
	.cfi_endproc

	.section	".text._ZN5alloc3vec16Vec$LT$T$C$A$GT$7set_len17hd33e24d8007e5273E","ax",@progbits
	.p2align	4, 0x90
	.type	_ZN5alloc3vec16Vec$LT$T$C$A$GT$7set_len17hd33e24d8007e5273E,@function
_ZN5alloc3vec16Vec$LT$T$C$A$GT$7set_len17hd33e24d8007e5273E:
.Lfunc_begin117:
	.loc	35 1264 0
	.cfi_startproc
	subq	$16, %rsp
	.cfi_def_cfa_offset 24
	movq	%rdi, (%rsp)
	movq	%rsi, 8(%rsp)
.Ltmp393:
	.loc	35 1267 9 prologue_end
	movq	%rsi, 16(%rdi)
	.loc	35 1268 6
	addq	$16, %rsp
	.cfi_def_cfa_offset 8
	retq
.Ltmp394:
.Lfunc_end117:
	.size	_ZN5alloc3vec16Vec$LT$T$C$A$GT$7set_len17hd33e24d8007e5273E, .Lfunc_end117-_ZN5alloc3vec16Vec$LT$T$C$A$GT$7set_len17hd33e24d8007e5273E
	.cfi_endproc

	.section	".text._ZN5alloc3vec16Vec$LT$T$C$A$GT$8capacity17h9f281e7bde954782E","ax",@progbits
	.p2align	4, 0x90
	.type	_ZN5alloc3vec16Vec$LT$T$C$A$GT$8capacity17h9f281e7bde954782E,@function
_ZN5alloc3vec16Vec$LT$T$C$A$GT$8capacity17h9f281e7bde954782E:
.Lfunc_begin118:
	.loc	35 785 0
	.cfi_startproc
	subq	$32, %rsp
	.cfi_def_cfa_offset 40
	movq	%rdi, 8(%rsp)
.Ltmp395:
	.loc	35 786 9 prologue_end
	movq	%rdi, %rax
	movq	%rax, 24(%rsp)
.Ltmp396:
	.file	36 "/rustc/f1edd0429582dd29cccacaf50fd134b05593bd9c/library/alloc/src/raw_vec.rs"
	.loc	36 251 59
	movq	8(%rdi), %rax
	movq	%rax, 16(%rsp)
	.loc	36 252 6
	movq	16(%rsp), %rax
	movq	%rax, (%rsp)
.Ltmp397:
	.loc	36 0 6 is_stmt 0
	movq	(%rsp), %rax
	.loc	35 787 6 is_stmt 1
	addq	$32, %rsp
	.cfi_def_cfa_offset 8
	retq
.Ltmp398:
.Lfunc_end118:
	.size	_ZN5alloc3vec16Vec$LT$T$C$A$GT$8capacity17h9f281e7bde954782E, .Lfunc_end118-_ZN5alloc3vec16Vec$LT$T$C$A$GT$8capacity17h9f281e7bde954782E
	.cfi_endproc

	.section	.text._ZN5alloc5alloc12alloc_zeroed17ha9f933a5aebc27a7E,"ax",@progbits
	.p2align	4, 0x90
	.type	_ZN5alloc5alloc12alloc_zeroed17ha9f933a5aebc27a7E,@function
_ZN5alloc5alloc12alloc_zeroed17ha9f933a5aebc27a7E:
.Lfunc_begin119:
	.file	37 "/rustc/f1edd0429582dd29cccacaf50fd134b05593bd9c/library/alloc/src/alloc.rs"
	.loc	37 154 0
	.cfi_startproc
	subq	$40, %rsp
	.cfi_def_cfa_offset 48
	movq	%rdi, 24(%rsp)
	movq	%rsi, 32(%rsp)
.Ltmp399:
	.loc	37 155 34 prologue_end
	leaq	24(%rsp), %rdi
	callq	_ZN4core5alloc6layout6Layout4size17h07857c8c487fbb62E
	movq	%rax, 16(%rsp)
	.loc	37 155 49 is_stmt 0
	leaq	24(%rsp), %rdi
	callq	_ZN4core5alloc6layout6Layout5align17h7a1d7d4fe7d0536eE
	movq	%rax, 8(%rsp)
	.loc	37 0 49
	movq	8(%rsp), %rsi
	movq	16(%rsp), %rdi
	.loc	37 155 14
	callq	*__rust_alloc_zeroed@GOTPCREL(%rip)
	movq	%rax, (%rsp)
	.loc	37 0 14
	movq	(%rsp), %rax
	.loc	37 156 2 is_stmt 1
	addq	$40, %rsp
	.cfi_def_cfa_offset 8
	retq
.Ltmp400:
.Lfunc_end119:
	.size	_ZN5alloc5alloc12alloc_zeroed17ha9f933a5aebc27a7E, .Lfunc_end119-_ZN5alloc5alloc12alloc_zeroed17ha9f933a5aebc27a7E
	.cfi_endproc

	.section	.text._ZN5alloc5alloc15exchange_malloc17hb02be779c956fa9aE,"ax",@progbits
	.p2align	4, 0x90
	.type	_ZN5alloc5alloc15exchange_malloc17hb02be779c956fa9aE,@function
_ZN5alloc5alloc15exchange_malloc17hb02be779c956fa9aE:
.Lfunc_begin120:
	.loc	37 313 0
	.cfi_startproc
	subq	$88, %rsp
	.cfi_def_cfa_offset 96
	movq	%rdi, 40(%rsp)
	movq	%rsi, 48(%rsp)
.Ltmp401:
	.loc	37 314 27 prologue_end
	callq	_ZN4core5alloc6layout6Layout25from_size_align_unchecked17hdb9fcf4e68a76993E
	movq	%rax, 8(%rsp)
	movq	%rdx, 16(%rsp)
	movq	%rax, 56(%rsp)
	movq	%rdx, 64(%rsp)
	.loc	37 0 27 is_stmt 0
	movq	16(%rsp), %rdx
	movq	8(%rsp), %rsi
.Ltmp402:
	.loc	37 315 11 is_stmt 1
	leaq	.L__unnamed_8(%rip), %rdi
	callq	_ZN63_$LT$alloc..alloc..Global$u20$as$u20$core..alloc..Allocator$GT$8allocate17h0d84b0b77e8ed6f1E
	movq	%rdx, 32(%rsp)
	movq	%rax, 24(%rsp)
	movq	24(%rsp), %rax
	testq	%rax, %rax
	sete	%al
	movzbl	%al, %eax
	.loc	37 315 5 is_stmt 0
	jne	.LBB120_4
	jmp	.LBB120_7
.LBB120_7:
	jmp	.LBB120_5
	.cfi_def_cfa_offset 8
	.loc	37 315 11
	ud2
.LBB120_4:
	.cfi_def_cfa_offset 96
	.loc	37 316 12 is_stmt 1
	movq	24(%rsp), %rdi
	movq	32(%rsp), %rsi
	movq	%rdi, 72(%rsp)
	movq	%rsi, 80(%rsp)
.Ltmp403:
	.loc	37 316 20 is_stmt 0
	callq	_ZN4core3ptr8non_null26NonNull$LT$$u5b$T$u5d$$GT$10as_mut_ptr17hb03f0f887199248fE
	movq	%rax, (%rsp)
	jmp	.LBB120_6
.Ltmp404:
.LBB120_5:
	.loc	37 0 20
	movq	16(%rsp), %rsi
	movq	8(%rsp), %rdi
	.loc	37 317 19 is_stmt 1
	movq	_ZN5alloc5alloc18handle_alloc_error17h6ad4108518320222E@GOTPCREL(%rip), %rax
	callq	*%rax
	ud2
.Ltmp405:
.LBB120_6:
	.loc	37 0 19 is_stmt 0
	movq	(%rsp), %rax
	.loc	37 319 2 is_stmt 1
	addq	$88, %rsp
	.cfi_def_cfa_offset 8
	retq
.Ltmp406:
.Lfunc_end120:
	.size	_ZN5alloc5alloc15exchange_malloc17hb02be779c956fa9aE, .Lfunc_end120-_ZN5alloc5alloc15exchange_malloc17hb02be779c956fa9aE
	.cfi_endproc

	.section	.text._ZN5alloc5alloc5alloc17h437a509df2e955ffE,"ax",@progbits
	.p2align	4, 0x90
	.type	_ZN5alloc5alloc5alloc17h437a509df2e955ffE,@function
_ZN5alloc5alloc5alloc17h437a509df2e955ffE:
.Lfunc_begin121:
	.loc	37 85 0
	.cfi_startproc
	subq	$40, %rsp
	.cfi_def_cfa_offset 48
	movq	%rdi, 24(%rsp)
	movq	%rsi, 32(%rsp)
.Ltmp407:
	.loc	37 86 27 prologue_end
	leaq	24(%rsp), %rdi
	callq	_ZN4core5alloc6layout6Layout4size17h07857c8c487fbb62E
	movq	%rax, 16(%rsp)
	.loc	37 86 42 is_stmt 0
	leaq	24(%rsp), %rdi
	callq	_ZN4core5alloc6layout6Layout5align17h7a1d7d4fe7d0536eE
	movq	%rax, 8(%rsp)
	.loc	37 0 42
	movq	8(%rsp), %rsi
	movq	16(%rsp), %rdi
	.loc	37 86 14
	callq	*__rust_alloc@GOTPCREL(%rip)
	movq	%rax, (%rsp)
	.loc	37 0 14
	movq	(%rsp), %rax
	.loc	37 87 2 is_stmt 1
	addq	$40, %rsp
	.cfi_def_cfa_offset 8
	retq
.Ltmp408:
.Lfunc_end121:
	.size	_ZN5alloc5alloc5alloc17h437a509df2e955ffE, .Lfunc_end121-_ZN5alloc5alloc5alloc17h437a509df2e955ffE
	.cfi_endproc

	.section	.text._ZN5alloc5alloc6Global10alloc_impl17hf94eff4d65cfd94cE,"ax",@progbits
	.p2align	4, 0x90
	.type	_ZN5alloc5alloc6Global10alloc_impl17hf94eff4d65cfd94cE,@function
_ZN5alloc5alloc6Global10alloc_impl17hf94eff4d65cfd94cE:
.Lfunc_begin122:
	.loc	37 161 0
	.cfi_startproc
	subq	$168, %rsp
	.cfi_def_cfa_offset 176
	movb	%cl, %al
	movb	%al, 63(%rsp)
	movq	%rsi, 72(%rsp)
	movq	%rdx, 80(%rsp)
	movq	%rdi, 120(%rsp)
	andb	$1, %al
	movb	%al, 135(%rsp)
.Ltmp409:
	.loc	37 162 15 prologue_end
	leaq	72(%rsp), %rdi
	callq	_ZN4core5alloc6layout6Layout4size17h07857c8c487fbb62E
	movq	%rax, 64(%rsp)
	.loc	37 0 15 is_stmt 0
	movq	64(%rsp), %rax
	.loc	37 162 9
	cmpq	$0, %rax
	jne	.LBB122_3
	.loc	37 163 51 is_stmt 1
	leaq	72(%rsp), %rdi
	callq	_ZN4core5alloc6layout6Layout8dangling17hf9afcda00d588f03E
	movq	%rax, 48(%rsp)
	jmp	.LBB122_19
.LBB122_3:
	.loc	37 0 51 is_stmt 0
	movb	63(%rsp), %al
	movq	64(%rsp), %rcx
	.loc	37 165 13 is_stmt 1
	movq	%rcx, 144(%rsp)
.Ltmp410:
	.loc	37 166 34
	testb	$1, %al
	jne	.LBB122_5
	.loc	37 166 79 is_stmt 0
	movq	72(%rsp), %rdi
	movq	80(%rsp), %rsi
	.loc	37 166 73
	callq	_ZN5alloc5alloc5alloc17h437a509df2e955ffE
	movq	%rax, 104(%rsp)
	jmp	.LBB122_8
.LBB122_5:
	.loc	37 166 56
	movq	72(%rsp), %rdi
	movq	80(%rsp), %rsi
	.loc	37 166 43
	callq	_ZN5alloc5alloc12alloc_zeroed17ha9f933a5aebc27a7E
	movq	%rax, 104(%rsp)
	.loc	37 166 31
	jmp	.LBB122_7
.LBB122_7:
.Ltmp411:
	.loc	37 167 40 is_stmt 1
	movq	104(%rsp), %rdi
	.loc	37 167 27 is_stmt 0
	callq	_ZN4core3ptr8non_null16NonNull$LT$T$GT$3new17hf310d9e05b68019bE
	movq	%rax, 40(%rsp)
	jmp	.LBB122_9
.Ltmp412:
.LBB122_8:
	.loc	37 166 31 is_stmt 1
	jmp	.LBB122_7
.LBB122_9:
	.loc	37 0 31 is_stmt 0
	movq	40(%rsp), %rdi
.Ltmp413:
	.loc	37 167 27 is_stmt 1
	callq	_ZN4core6option15Option$LT$T$GT$5ok_or17h975c52cee5f7bc06E
	movq	%rax, 32(%rsp)
	.loc	37 0 27 is_stmt 0
	movq	32(%rsp), %rdi
	.loc	37 167 27
	callq	_ZN79_$LT$core..result..Result$LT$T$C$E$GT$$u20$as$u20$core..ops..try_trait..Try$GT$6branch17h7ff22386525268d0E
	movq	%rax, 112(%rsp)
	movq	112(%rsp), %rax
	testq	%rax, %rax
	sete	%al
	movzbl	%al, %eax
	jne	.LBB122_13
	jmp	.LBB122_21
.LBB122_21:
	jmp	.LBB122_14
	.cfi_def_cfa_offset 8
	ud2
.LBB122_13:
	.cfi_def_cfa_offset 176
	.loc	37 0 27
	movq	64(%rsp), %rsi
	.loc	37 167 27
	movq	112(%rsp), %rdi
	movq	%rdi, 152(%rsp)
.Ltmp414:
	.loc	37 167 27
	movq	%rdi, 160(%rsp)
.Ltmp415:
	.loc	37 168 20 is_stmt 1
	callq	_ZN4core3ptr8non_null26NonNull$LT$$u5b$T$u5d$$GT$20slice_from_raw_parts17h293b001fd3ba1281E
	movq	%rax, 16(%rsp)
	movq	%rdx, 24(%rsp)
	jmp	.LBB122_17
.Ltmp416:
.LBB122_14:
	.loc	37 167 27
	callq	_ZN153_$LT$core..result..Result$LT$T$C$F$GT$$u20$as$u20$core..ops..try_trait..FromResidual$LT$core..result..Result$LT$core..convert..Infallible$C$E$GT$$GT$$GT$13from_residual17h6ada0fe28c20db45E
	movq	%rdx, 96(%rsp)
	movq	%rax, 88(%rsp)
.Ltmp417:
	.loc	37 171 6
	jmp	.LBB122_16
.LBB122_16:
	movq	88(%rsp), %rax
	movq	96(%rsp), %rdx
	addq	$168, %rsp
	.cfi_def_cfa_offset 8
	retq
.LBB122_17:
	.cfi_def_cfa_offset 176
	.loc	37 0 6 is_stmt 0
	movq	24(%rsp), %rax
	movq	16(%rsp), %rcx
.Ltmp418:
	.loc	37 168 17 is_stmt 1
	movq	%rcx, 88(%rsp)
	movq	%rax, 96(%rsp)
.Ltmp419:
.LBB122_18:
	.loc	37 171 6
	jmp	.LBB122_16
.LBB122_19:
	.loc	37 0 6 is_stmt 0
	movq	48(%rsp), %rdi
	.loc	37 163 21 is_stmt 1
	xorl	%eax, %eax
	movl	%eax, %esi
	callq	_ZN4core3ptr8non_null26NonNull$LT$$u5b$T$u5d$$GT$20slice_from_raw_parts17h293b001fd3ba1281E
	movq	%rax, (%rsp)
	movq	%rdx, 8(%rsp)
	.loc	37 0 21 is_stmt 0
	movq	8(%rsp), %rax
	movq	(%rsp), %rcx
	.loc	37 163 18
	movq	%rcx, 88(%rsp)
	movq	%rax, 96(%rsp)
	.loc	37 163 72
	jmp	.LBB122_18
.Ltmp420:
.Lfunc_end122:
	.size	_ZN5alloc5alloc6Global10alloc_impl17hf94eff4d65cfd94cE, .Lfunc_end122-_ZN5alloc5alloc6Global10alloc_impl17hf94eff4d65cfd94cE
	.cfi_endproc

	.section	.text._ZN5alloc5alloc6Global9grow_impl17hbb98394ec71ea563E,"ax",@progbits
	.p2align	4, 0x90
	.type	_ZN5alloc5alloc6Global9grow_impl17hbb98394ec71ea563E,@function
_ZN5alloc5alloc6Global9grow_impl17hbb98394ec71ea563E:
.Lfunc_begin123:
	.loc	37 175 0 is_stmt 1
	.cfi_startproc
	subq	$456, %rsp
	.cfi_def_cfa_offset 464
	movq	%rsi, 160(%rsp)
	movq	%rdi, 168(%rsp)
	movb	464(%rsp), %al
	movb	%al, 183(%rsp)
	movq	%rdx, 184(%rsp)
	movq	%rcx, 192(%rsp)
	movq	%r8, 200(%rsp)
	movq	%r9, 208(%rsp)
	movq	%rdi, 264(%rsp)
	movq	%rsi, 272(%rsp)
	andb	$1, %al
	movb	%al, 287(%rsp)
.Ltmp421:
	.loc	37 187 15 prologue_end
	leaq	184(%rsp), %rdi
	callq	_ZN4core5alloc6layout6Layout4size17h07857c8c487fbb62E
	movq	%rax, 232(%rsp)
	.loc	37 187 9 is_stmt 0
	cmpq	$0, 232(%rsp)
	jne	.LBB123_3
	.loc	37 0 9
	movq	168(%rsp), %rdi
	movb	183(%rsp), %al
	.loc	37 188 34 is_stmt 1
	movq	200(%rsp), %rsi
	movq	208(%rsp), %rdx
	.loc	37 188 18 is_stmt 0
	movzbl	%al, %ecx
	andl	$1, %ecx
	callq	_ZN5alloc5alloc6Global10alloc_impl17hf94eff4d65cfd94cE
	movq	%rdx, 224(%rsp)
	movq	%rax, 216(%rsp)
	jmp	.LBB123_38
.LBB123_3:
	.loc	37 192 13 is_stmt 1
	leaq	232(%rsp), %rax
	movq	%rax, 304(%rsp)
	.loc	37 192 25 is_stmt 0
	leaq	184(%rsp), %rdi
	callq	_ZN4core5alloc6layout6Layout5align17h7a1d7d4fe7d0536eE
	movq	%rax, 152(%rsp)
	.loc	37 192 47
	leaq	200(%rsp), %rdi
	callq	_ZN4core5alloc6layout6Layout5align17h7a1d7d4fe7d0536eE
	movq	%rax, 144(%rsp)
	.loc	37 0 47
	movq	152(%rsp), %rax
	movq	144(%rsp), %rcx
	.loc	37 192 25
	cmpq	%rcx, %rax
	je	.LBB123_7
	.loc	37 0 25
	movq	168(%rsp), %rdi
	movb	183(%rsp), %al
	.loc	37 211 13 is_stmt 1
	movq	232(%rsp), %rcx
	movq	%rcx, 120(%rsp)
	movq	%rcx, 352(%rsp)
.Ltmp422:
	.loc	37 212 47
	movq	200(%rsp), %rsi
	movq	208(%rsp), %rdx
	.loc	37 212 31 is_stmt 0
	movzbl	%al, %ecx
	andl	$1, %ecx
	callq	_ZN5alloc5alloc6Global10alloc_impl17hf94eff4d65cfd94cE
	movq	%rdx, 128(%rsp)
	movq	%rax, 136(%rsp)
	jmp	.LBB123_27
.Ltmp423:
.LBB123_7:
	.loc	37 192 13 is_stmt 1
	movq	232(%rsp), %rax
	movq	%rax, 104(%rsp)
	movq	%rax, 312(%rsp)
.Ltmp424:
	.loc	37 193 32
	leaq	200(%rsp), %rdi
	callq	_ZN4core5alloc6layout6Layout4size17h07857c8c487fbb62E
	movq	%rax, 112(%rsp)
	movq	%rax, 320(%rsp)
.Ltmp425:
	.loc	37 196 48
	leaq	184(%rsp), %rdi
	callq	_ZN4core5alloc6layout6Layout4size17h07857c8c487fbb62E
	.loc	37 0 48 is_stmt 0
	movq	160(%rsp), %rdi
	.loc	37 198 39 is_stmt 1
	callq	_ZN4core3ptr8non_null16NonNull$LT$T$GT$6as_ptr17hf5d86412ce9e3ea7E
	movq	%rax, 96(%rsp)
	.loc	37 0 39 is_stmt 0
	movq	112(%rsp), %rcx
	movq	96(%rsp), %rdi
	.loc	37 198 53
	movq	184(%rsp), %rsi
	movq	192(%rsp), %rdx
	.loc	37 198 31
	callq	_ZN5alloc5alloc7realloc17h01cf00a1f7e92c10E
	movq	%rax, 88(%rsp)
	movq	%rax, 328(%rsp)
	.loc	37 0 31
	movq	88(%rsp), %rdi
.Ltmp426:
	.loc	37 199 27 is_stmt 1
	callq	_ZN4core3ptr8non_null16NonNull$LT$T$GT$3new17hf310d9e05b68019bE
	movq	%rax, 80(%rsp)
	.loc	37 0 27 is_stmt 0
	movq	80(%rsp), %rdi
	.loc	37 199 27
	callq	_ZN4core6option15Option$LT$T$GT$5ok_or17h975c52cee5f7bc06E
	movq	%rax, 72(%rsp)
	.loc	37 0 27
	movq	72(%rsp), %rdi
	.loc	37 199 27
	callq	_ZN79_$LT$core..result..Result$LT$T$C$E$GT$$u20$as$u20$core..ops..try_trait..Try$GT$6branch17h7ff22386525268d0E
	movq	%rax, 240(%rsp)
	movq	240(%rsp), %rax
	testq	%rax, %rax
	sete	%al
	movzbl	%al, %eax
	jne	.LBB123_17
	jmp	.LBB123_40
.LBB123_40:
	jmp	.LBB123_18
	.cfi_def_cfa_offset 8
	ud2
.LBB123_17:
	.cfi_def_cfa_offset 464
	.loc	37 0 27
	movb	183(%rsp), %al
	.loc	37 199 27
	movq	240(%rsp), %rcx
	movq	%rcx, 64(%rsp)
	movq	%rcx, 336(%rsp)
.Ltmp427:
	.loc	37 199 27
	movq	%rcx, 344(%rsp)
.Ltmp428:
	.loc	37 200 20 is_stmt 1
	testb	$1, %al
	jne	.LBB123_22
	jmp	.LBB123_21
.Ltmp429:
.LBB123_18:
	.loc	37 199 27
	callq	_ZN153_$LT$core..result..Result$LT$T$C$F$GT$$u20$as$u20$core..ops..try_trait..FromResidual$LT$core..result..Result$LT$core..convert..Infallible$C$E$GT$$GT$$GT$13from_residual17h6ada0fe28c20db45E
	movq	%rdx, 224(%rsp)
	movq	%rax, 216(%rsp)
.Ltmp430:
	.loc	24 1 1
	jmp	.LBB123_20
.LBB123_20:
	.loc	37 218 6
	jmp	.LBB123_33
.LBB123_21:
	.loc	37 0 6 is_stmt 0
	movq	112(%rsp), %rsi
	movq	64(%rsp), %rdi
.Ltmp431:
	.loc	37 203 20 is_stmt 1
	callq	_ZN4core3ptr8non_null26NonNull$LT$$u5b$T$u5d$$GT$20slice_from_raw_parts17h293b001fd3ba1281E
	movq	%rax, 48(%rsp)
	movq	%rdx, 56(%rsp)
	jmp	.LBB123_25
.LBB123_22:
	.loc	37 0 20 is_stmt 0
	movq	104(%rsp), %rcx
	movq	88(%rsp), %rax
	movq	%rax, 392(%rsp)
	movq	%rcx, 400(%rsp)
	movq	%rax, 408(%rsp)
	movq	%rcx, 416(%rsp)
.Ltmp432:
	.loc	17 242 18 is_stmt 1
	addq	%rcx, %rax
	movq	%rax, 424(%rsp)
	movq	424(%rsp), %rax
	movq	%rax, 40(%rsp)
.Ltmp433:
	.loc	17 0 18 is_stmt 0
	movq	40(%rsp), %rdi
	movq	104(%rsp), %rax
	movq	112(%rsp), %rdx
	.loc	37 201 58 is_stmt 1
	subq	%rax, %rdx
	movq	%rdi, 432(%rsp)
	movb	$0, 447(%rsp)
	movq	%rdx, 448(%rsp)
.Ltmp434:
	.loc	17 1029 18
	xorl	%esi, %esi
	callq	_ZN4core10intrinsics11write_bytes17h99a8b8aec4b8ab2cE
.Ltmp435:
	.loc	37 200 17
	jmp	.LBB123_21
.LBB123_25:
	.loc	37 0 17 is_stmt 0
	movq	56(%rsp), %rax
	movq	48(%rsp), %rcx
	.loc	37 203 17 is_stmt 1
	movq	%rcx, 216(%rsp)
	movq	%rax, 224(%rsp)
.Ltmp436:
.LBB123_26:
	.loc	37 218 6
	jmp	.LBB123_33
.LBB123_27:
	.loc	37 0 6 is_stmt 0
	movq	128(%rsp), %rsi
	movq	136(%rsp), %rdi
.Ltmp437:
	.loc	37 212 31 is_stmt 1
	callq	_ZN79_$LT$core..result..Result$LT$T$C$E$GT$$u20$as$u20$core..ops..try_trait..Try$GT$6branch17h9dc5a5d1fe1a24a5E
	movq	%rdx, 256(%rsp)
	movq	%rax, 248(%rsp)
	movq	248(%rsp), %rax
	testq	%rax, %rax
	sete	%al
	movzbl	%al, %eax
	jne	.LBB123_30
	jmp	.LBB123_39
.LBB123_39:
	jmp	.LBB123_31
	.cfi_def_cfa_offset 8
	ud2
.LBB123_30:
	.cfi_def_cfa_offset 464
	.loc	37 0 31 is_stmt 0
	movq	160(%rsp), %rdi
	.loc	37 212 31
	movq	248(%rsp), %rcx
	movq	%rcx, 16(%rsp)
	movq	256(%rsp), %rax
	movq	%rax, 24(%rsp)
	movq	%rcx, 360(%rsp)
	movq	%rax, 368(%rsp)
.Ltmp438:
	.loc	37 212 31
	movq	%rcx, 376(%rsp)
	movq	%rax, 384(%rsp)
.Ltmp439:
	.loc	37 213 42 is_stmt 1
	callq	_ZN4core3ptr8non_null16NonNull$LT$T$GT$6as_ptr17hf5d86412ce9e3ea7E
	movq	%rax, 32(%rsp)
	jmp	.LBB123_34
.Ltmp440:
.LBB123_31:
	.loc	37 212 31
	callq	_ZN153_$LT$core..result..Result$LT$T$C$F$GT$$u20$as$u20$core..ops..try_trait..FromResidual$LT$core..result..Result$LT$core..convert..Infallible$C$E$GT$$GT$$GT$13from_residual17h6ada0fe28c20db45E
	movq	%rdx, 224(%rsp)
	movq	%rax, 216(%rsp)
.Ltmp441:
	.loc	24 1 1
	jmp	.LBB123_20
.LBB123_33:
	.loc	37 218 6
	movq	216(%rsp), %rax
	movq	224(%rsp), %rdx
	addq	$456, %rsp
	.cfi_def_cfa_offset 8
	retq
.LBB123_34:
	.cfi_def_cfa_offset 464
	.loc	37 0 6 is_stmt 0
	movq	24(%rsp), %rsi
	movq	16(%rsp), %rdi
.Ltmp442:
	.loc	37 213 56 is_stmt 1
	callq	_ZN4core3ptr8non_null26NonNull$LT$$u5b$T$u5d$$GT$10as_mut_ptr17hb03f0f887199248fE
	movq	%rax, 8(%rsp)
	.loc	37 0 56 is_stmt 0
	movq	120(%rsp), %rdx
	movq	8(%rsp), %rsi
	movq	32(%rsp), %rdi
	.loc	37 213 17
	callq	_ZN4core10intrinsics19copy_nonoverlapping17hfa1234651dbe88a5E
	.loc	37 0 17
	movq	160(%rsp), %rsi
	movq	168(%rsp), %rdi
	.loc	37 214 38 is_stmt 1
	movq	184(%rsp), %rdx
	movq	192(%rsp), %rcx
	.loc	37 214 17 is_stmt 0
	callq	_ZN63_$LT$alloc..alloc..Global$u20$as$u20$core..alloc..Allocator$GT$10deallocate17hd2760c2e3ebf0a25E
	.loc	37 0 17
	movq	24(%rsp), %rax
	movq	16(%rsp), %rcx
	.loc	37 215 17 is_stmt 1
	movq	%rcx, 216(%rsp)
	movq	%rax, 224(%rsp)
.Ltmp443:
	.loc	37 216 13
	jmp	.LBB123_26
.LBB123_38:
	.loc	37 188 52
	jmp	.LBB123_26
.Ltmp444:
.Lfunc_end123:
	.size	_ZN5alloc5alloc6Global9grow_impl17hbb98394ec71ea563E, .Lfunc_end123-_ZN5alloc5alloc6Global9grow_impl17hbb98394ec71ea563E
	.cfi_endproc

	.section	.text._ZN5alloc5alloc7dealloc17h69f083c539dd9eb8E,"ax",@progbits
	.p2align	4, 0x90
	.type	_ZN5alloc5alloc7dealloc17h69f083c539dd9eb8E,@function
_ZN5alloc5alloc7dealloc17h69f083c539dd9eb8E:
.Lfunc_begin124:
	.loc	37 103 0
	.cfi_startproc
	subq	$56, %rsp
	.cfi_def_cfa_offset 64
	movq	%rdi, 16(%rsp)
	movq	%rsi, 32(%rsp)
	movq	%rdx, 40(%rsp)
	movq	%rdi, 48(%rsp)
.Ltmp445:
	.loc	37 104 34 prologue_end
	leaq	32(%rsp), %rdi
	callq	_ZN4core5alloc6layout6Layout4size17h07857c8c487fbb62E
	movq	%rax, 24(%rsp)
	.loc	37 104 49 is_stmt 0
	leaq	32(%rsp), %rdi
	callq	_ZN4core5alloc6layout6Layout5align17h7a1d7d4fe7d0536eE
	movq	%rax, 8(%rsp)
	.loc	37 0 49
	movq	8(%rsp), %rdx
	movq	24(%rsp), %rsi
	movq	16(%rsp), %rdi
	.loc	37 104 14
	callq	*__rust_dealloc@GOTPCREL(%rip)
	.loc	37 105 2 is_stmt 1
	addq	$56, %rsp
	.cfi_def_cfa_offset 8
	retq
.Ltmp446:
.Lfunc_end124:
	.size	_ZN5alloc5alloc7dealloc17h69f083c539dd9eb8E, .Lfunc_end124-_ZN5alloc5alloc7dealloc17h69f083c539dd9eb8E
	.cfi_endproc

	.section	.text._ZN5alloc5alloc7realloc17h01cf00a1f7e92c10E,"ax",@progbits
	.p2align	4, 0x90
	.type	_ZN5alloc5alloc7realloc17h01cf00a1f7e92c10E,@function
_ZN5alloc5alloc7realloc17h01cf00a1f7e92c10E:
.Lfunc_begin125:
	.loc	37 121 0
	.cfi_startproc
	subq	$72, %rsp
	.cfi_def_cfa_offset 80
	movq	%rdi, 16(%rsp)
	movq	%rcx, 24(%rsp)
	movq	%rsi, 40(%rsp)
	movq	%rdx, 48(%rsp)
	movq	%rdi, 56(%rsp)
	movq	%rcx, 64(%rsp)
.Ltmp447:
	.loc	37 122 34 prologue_end
	leaq	40(%rsp), %rdi
	callq	_ZN4core5alloc6layout6Layout4size17h07857c8c487fbb62E
	movq	%rax, 32(%rsp)
	.loc	37 122 49 is_stmt 0
	leaq	40(%rsp), %rdi
	callq	_ZN4core5alloc6layout6Layout5align17h7a1d7d4fe7d0536eE
	movq	%rax, 8(%rsp)
	.loc	37 0 49
	movq	24(%rsp), %rcx
	movq	8(%rsp), %rdx
	movq	32(%rsp), %rsi
	movq	16(%rsp), %rdi
	.loc	37 122 14
	callq	*__rust_realloc@GOTPCREL(%rip)
	movq	%rax, (%rsp)
	.loc	37 0 14
	movq	(%rsp), %rax
	.loc	37 123 2 is_stmt 1
	addq	$72, %rsp
	.cfi_def_cfa_offset 8
	retq
.Ltmp448:
.Lfunc_end125:
	.size	_ZN5alloc5alloc7realloc17h01cf00a1f7e92c10E, .Lfunc_end125-_ZN5alloc5alloc7realloc17h01cf00a1f7e92c10E
	.cfi_endproc

	.section	.text._ZN5alloc5alloc8box_free17h018f5c6fc706a73dE,"ax",@progbits
	.p2align	4, 0x90
	.type	_ZN5alloc5alloc8box_free17h018f5c6fc706a73dE,@function
_ZN5alloc5alloc8box_free17h018f5c6fc706a73dE:
.Lfunc_begin126:
	.loc	37 328 0
	.cfi_startproc
	.cfi_personality 155, DW.ref.rust_eh_personality
	.cfi_lsda 27, .Lexception7
	subq	$152, %rsp
	.cfi_def_cfa_offset 160
	movq	%rdi, 72(%rsp)
.Ltmp449:
	leaq	72(%rsp), %rdi
.Ltmp462:
	.loc	37 330 32 prologue_end
	callq	_ZN4core3ptr6unique15Unique$LT$T$GT$6as_ref17h790c261c61c63339E
.Ltmp450:
	jmp	.LBB126_1
.LBB126_1:
	.loc	37 330 20 is_stmt 0
	movq	$24, 104(%rsp)
	movq	104(%rsp), %rax
	movq	%rax, 64(%rsp)
	movq	%rax, 112(%rsp)
	jmp	.LBB126_4
.LBB126_2:
	.loc	37 335 1 is_stmt 1
	jmp	.LBB126_11
.LBB126_3:
.Ltmp461:
	.loc	37 0 1 is_stmt 0
	movq	%rax, %rcx
	movl	%edx, %eax
	movq	%rcx, 88(%rsp)
	movl	%eax, 96(%rsp)
	jmp	.LBB126_2
.LBB126_4:
.Ltmp451:
	leaq	72(%rsp), %rdi
.Ltmp463:
	.loc	37 331 38 is_stmt 1
	callq	_ZN4core3ptr6unique15Unique$LT$T$GT$6as_ref17h790c261c61c63339E
.Ltmp452:
	jmp	.LBB126_5
.LBB126_5:
	.loc	37 331 21 is_stmt 0
	movq	$8, 120(%rsp)
	movq	120(%rsp), %rax
	movq	%rax, 56(%rsp)
	movq	%rax, 128(%rsp)
.Ltmp453:
	.loc	37 0 21
	movq	56(%rsp), %rsi
	movq	64(%rsp), %rdi
.Ltmp464:
	.loc	37 332 22 is_stmt 1
	callq	_ZN4core5alloc6layout6Layout25from_size_align_unchecked17hdb9fcf4e68a76993E
.Ltmp454:
	movq	%rdx, 40(%rsp)
	movq	%rax, 48(%rsp)
	jmp	.LBB126_7
.LBB126_7:
	.loc	37 0 22 is_stmt 0
	movq	40(%rsp), %rax
	movq	48(%rsp), %rcx
	.loc	37 332 22
	movq	%rcx, %rdx
	movq	%rdx, 16(%rsp)
	movq	%rax, %rdx
	movq	%rdx, 24(%rsp)
	movq	%rcx, 136(%rsp)
	movq	%rax, 144(%rsp)
.Ltmp465:
	.loc	37 333 26 is_stmt 1
	movq	72(%rsp), %rdi
.Ltmp455:
	callq	_ZN4core3ptr6unique15Unique$LT$T$GT$4cast17hfecfd0dd84f8cc8dE
.Ltmp456:
	movq	%rax, 32(%rsp)
	jmp	.LBB126_8
.LBB126_8:
.Ltmp457:
	.loc	37 0 26 is_stmt 0
	movq	32(%rsp), %rdi
	.loc	37 333 26
	callq	_ZN50_$LT$T$u20$as$u20$core..convert..Into$LT$U$GT$$GT$4into17h1a68ef3ddac55b98E
.Ltmp458:
	movq	%rax, 8(%rsp)
	jmp	.LBB126_9
.LBB126_9:
.Ltmp459:
	.loc	37 0 26
	movq	24(%rsp), %rcx
	movq	16(%rsp), %rdx
	movq	8(%rsp), %rsi
	leaq	80(%rsp), %rdi
	.loc	37 333 9
	callq	_ZN63_$LT$alloc..alloc..Global$u20$as$u20$core..alloc..Allocator$GT$10deallocate17hd2760c2e3ebf0a25E
.Ltmp460:
	jmp	.LBB126_10
.Ltmp466:
.LBB126_10:
	.loc	37 335 1 is_stmt 1
	jmp	.LBB126_12
.LBB126_11:
	.loc	37 328 1
	movq	88(%rsp), %rdi
	callq	_Unwind_Resume@PLT
	ud2
.LBB126_12:
	.loc	37 335 2
	addq	$152, %rsp
	.cfi_def_cfa_offset 8
	retq
.Ltmp467:
.Lfunc_end126:
	.size	_ZN5alloc5alloc8box_free17h018f5c6fc706a73dE, .Lfunc_end126-_ZN5alloc5alloc8box_free17h018f5c6fc706a73dE
	.cfi_endproc
	.section	.gcc_except_table._ZN5alloc5alloc8box_free17h018f5c6fc706a73dE,"a",@progbits
	.p2align	2
GCC_except_table126:
.Lexception7:
	.byte	255
	.byte	255
	.byte	1
	.uleb128 .Lcst_end7-.Lcst_begin7
.Lcst_begin7:
	.uleb128 .Ltmp449-.Lfunc_begin126
	.uleb128 .Ltmp460-.Ltmp449
	.uleb128 .Ltmp461-.Lfunc_begin126
	.byte	0
	.uleb128 .Ltmp460-.Lfunc_begin126
	.uleb128 .Lfunc_end126-.Ltmp460
	.byte	0
	.byte	0
.Lcst_end7:
	.p2align	2

	.section	".text._ZN5alloc5boxed16Box$LT$T$C$A$GT$11into_unique17hc0e37fbea2a50102E","ax",@progbits
	.p2align	4, 0x90
	.type	_ZN5alloc5boxed16Box$LT$T$C$A$GT$11into_unique17hc0e37fbea2a50102E,@function
_ZN5alloc5boxed16Box$LT$T$C$A$GT$11into_unique17hc0e37fbea2a50102E:
.Lfunc_begin127:
	.file	38 "/rustc/f1edd0429582dd29cccacaf50fd134b05593bd9c/library/alloc/src/boxed.rs"
	.loc	38 1012 0
	.cfi_startproc
	.cfi_personality 155, DW.ref.rust_eh_personality
	.cfi_lsda 27, .Lexception8
	subq	$72, %rsp
	.cfi_def_cfa_offset 80
	movq	%rdi, 24(%rsp)
.Ltmp476:
	.loc	38 1018 13 prologue_end
	movb	$0, 47(%rsp)
	movb	$1, 47(%rsp)
.Ltmp468:
	leaq	24(%rsp), %rdi
	.loc	38 1018 30 is_stmt 0
	callq	_ZN4core3ptr4read17h8c97b85808dc0822E
.Ltmp469:
	jmp	.LBB127_1
.LBB127_1:
.Ltmp477:
	.loc	38 1019 33 is_stmt 1
	movb	$0, 47(%rsp)
	movq	24(%rsp), %rdi
.Ltmp471:
	.loc	38 1019 23 is_stmt 0
	callq	_ZN5alloc5boxed16Box$LT$T$C$A$GT$4leak17hb159121aed65175aE
.Ltmp472:
	movq	%rax, 16(%rsp)
	jmp	.LBB127_4
.Ltmp478:
.LBB127_2:
	.loc	38 1020 5 is_stmt 1
	testb	$1, 47(%rsp)
	jne	.LBB127_9
	jmp	.LBB127_8
.LBB127_3:
.Ltmp470:
	.loc	38 0 5 is_stmt 0
	movq	%rax, %rcx
	movl	%edx, %eax
	movq	%rcx, 56(%rsp)
	movl	%eax, 64(%rsp)
	jmp	.LBB127_2
.LBB127_4:
.Ltmp473:
	movq	16(%rsp), %rdi
.Ltmp479:
	.loc	38 1019 10 is_stmt 1
	callq	_ZN95_$LT$core..ptr..unique..Unique$LT$T$GT$$u20$as$u20$core..convert..From$LT$$RF$mut$u20$T$GT$$GT$4from17haab17a59f1095e98E
.Ltmp474:
	movq	%rax, 8(%rsp)
	jmp	.LBB127_7
.Ltmp480:
.LBB127_5:
	.loc	38 1020 5
	jmp	.LBB127_2
.LBB127_6:
.Ltmp475:
	.loc	38 0 5 is_stmt 0
	movq	%rax, %rcx
	movl	%edx, %eax
	movq	%rcx, 56(%rsp)
	movl	%eax, 64(%rsp)
	jmp	.LBB127_5
.LBB127_7:
	movq	8(%rsp), %rax
.Ltmp481:
	.loc	38 1019 9 is_stmt 1
	movq	%rax, 32(%rsp)
.Ltmp482:
	.loc	38 1020 6
	movq	32(%rsp), %rax
	addq	$72, %rsp
	.cfi_def_cfa_offset 8
	retq
.LBB127_8:
	.cfi_def_cfa_offset 80
	.loc	38 1012 5
	movq	56(%rsp), %rdi
	callq	_Unwind_Resume@PLT
	ud2
.LBB127_9:
	.loc	38 1020 5
	leaq	24(%rsp), %rdi
	callq	_ZN4core3ptr67drop_in_place$LT$alloc..boxed..Box$LT$alloc..string..String$GT$$GT$17h8008da716a738a01E
	jmp	.LBB127_8
.Ltmp483:
.Lfunc_end127:
	.size	_ZN5alloc5boxed16Box$LT$T$C$A$GT$11into_unique17hc0e37fbea2a50102E, .Lfunc_end127-_ZN5alloc5boxed16Box$LT$T$C$A$GT$11into_unique17hc0e37fbea2a50102E
	.cfi_endproc
	.section	".gcc_except_table._ZN5alloc5boxed16Box$LT$T$C$A$GT$11into_unique17hc0e37fbea2a50102E","a",@progbits
	.p2align	2
GCC_except_table127:
.Lexception8:
	.byte	255
	.byte	255
	.byte	1
	.uleb128 .Lcst_end8-.Lcst_begin8
.Lcst_begin8:
	.uleb128 .Ltmp468-.Lfunc_begin127
	.uleb128 .Ltmp469-.Ltmp468
	.uleb128 .Ltmp470-.Lfunc_begin127
	.byte	0
	.uleb128 .Ltmp471-.Lfunc_begin127
	.uleb128 .Ltmp474-.Ltmp471
	.uleb128 .Ltmp475-.Lfunc_begin127
	.byte	0
	.uleb128 .Ltmp474-.Lfunc_begin127
	.uleb128 .Lfunc_end127-.Ltmp474
	.byte	0
	.byte	0
.Lcst_end8:
	.p2align	2

	.section	".text._ZN5alloc5boxed16Box$LT$T$C$A$GT$23into_raw_with_allocator17h3ff28e37f5f80075E","ax",@progbits
	.p2align	4, 0x90
	.type	_ZN5alloc5boxed16Box$LT$T$C$A$GT$23into_raw_with_allocator17h3ff28e37f5f80075E,@function
_ZN5alloc5boxed16Box$LT$T$C$A$GT$23into_raw_with_allocator17h3ff28e37f5f80075E:
.Lfunc_begin128:
	.loc	38 1000 0
	.cfi_startproc
	.cfi_personality 155, DW.ref.rust_eh_personality
	.cfi_lsda 27, .Lexception9
	subq	$72, %rsp
	.cfi_def_cfa_offset 80
	movq	%rdi, 32(%rsp)
.Ltmp487:
	.loc	38 1001 31 prologue_end
	callq	_ZN5alloc5boxed16Box$LT$T$C$A$GT$11into_unique17hc0e37fbea2a50102E
	movq	%rax, 16(%rsp)
	.loc	38 0 31 is_stmt 0
	movq	16(%rsp), %rdi
	.loc	38 1001 14
	movq	%rdi, 48(%rsp)
.Ltmp484:
.Ltmp488:
	.loc	38 1002 10 is_stmt 1
	callq	_ZN4core3ptr6unique15Unique$LT$T$GT$6as_ptr17h436a4fbbd5cea1a2E
.Ltmp485:
	movq	%rax, 8(%rsp)
	jmp	.LBB128_2
.LBB128_2:
	.loc	38 0 10 is_stmt 0
	movq	8(%rsp), %rax
	.loc	38 1002 9
	movq	%rax, 24(%rsp)
.Ltmp489:
	.loc	38 1003 6 is_stmt 1
	movq	24(%rsp), %rax
	addq	$72, %rsp
	.cfi_def_cfa_offset 8
	retq
.LBB128_3:
	.cfi_def_cfa_offset 80
	.loc	38 1003 5 is_stmt 0
	jmp	.LBB128_5
.LBB128_4:
.Ltmp486:
	.loc	38 0 5
	movq	%rax, %rcx
	movl	%edx, %eax
	movq	%rcx, 56(%rsp)
	movl	%eax, 64(%rsp)
	jmp	.LBB128_3
.LBB128_5:
	.loc	38 1000 5 is_stmt 1
	movq	56(%rsp), %rdi
	callq	_Unwind_Resume@PLT
	ud2
.Ltmp490:
.Lfunc_end128:
	.size	_ZN5alloc5boxed16Box$LT$T$C$A$GT$23into_raw_with_allocator17h3ff28e37f5f80075E, .Lfunc_end128-_ZN5alloc5boxed16Box$LT$T$C$A$GT$23into_raw_with_allocator17h3ff28e37f5f80075E
	.cfi_endproc
	.section	".gcc_except_table._ZN5alloc5boxed16Box$LT$T$C$A$GT$23into_raw_with_allocator17h3ff28e37f5f80075E","a",@progbits
	.p2align	2
GCC_except_table128:
.Lexception9:
	.byte	255
	.byte	255
	.byte	1
	.uleb128 .Lcst_end9-.Lcst_begin9
.Lcst_begin9:
	.uleb128 .Lfunc_begin128-.Lfunc_begin128
	.uleb128 .Ltmp484-.Lfunc_begin128
	.byte	0
	.byte	0
	.uleb128 .Ltmp484-.Lfunc_begin128
	.uleb128 .Ltmp485-.Ltmp484
	.uleb128 .Ltmp486-.Lfunc_begin128
	.byte	0
	.uleb128 .Ltmp485-.Lfunc_begin128
	.uleb128 .Lfunc_end128-.Ltmp485
	.byte	0
	.byte	0
.Lcst_end9:
	.p2align	2

	.section	".text._ZN5alloc5boxed16Box$LT$T$C$A$GT$4leak17hb159121aed65175aE","ax",@progbits
	.p2align	4, 0x90
	.type	_ZN5alloc5boxed16Box$LT$T$C$A$GT$4leak17hb159121aed65175aE,@function
_ZN5alloc5boxed16Box$LT$T$C$A$GT$4leak17hb159121aed65175aE:
.Lfunc_begin129:
	.loc	38 1070 0
	.cfi_startproc
	subq	$56, %rsp
	.cfi_def_cfa_offset 64
	movq	%rdi, 24(%rsp)
	movq	%rdi, 40(%rsp)
.Ltmp491:
	.file	39 "/rustc/f1edd0429582dd29cccacaf50fd134b05593bd9c/library/core/src/mem/manually_drop.rs"
	.loc	39 70 9 prologue_end
	movq	%rdi, 32(%rsp)
	.loc	39 71 6
	movq	32(%rsp), %rax
.Ltmp492:
	.loc	38 1074 24
	movq	%rax, 16(%rsp)
	.loc	38 0 24 is_stmt 0
	leaq	16(%rsp), %rax
	movq	%rax, 48(%rsp)
.Ltmp493:
	.loc	39 153 9 is_stmt 1
	leaq	16(%rsp), %rax
	movq	%rax, 8(%rsp)
.Ltmp494:
	.loc	39 0 9 is_stmt 0
	movq	8(%rsp), %rax
	.loc	38 1074 24 is_stmt 1
	movq	(%rax), %rdi
	callq	_ZN4core3ptr6unique15Unique$LT$T$GT$6as_ptr17h436a4fbbd5cea1a2E
	movq	%rax, (%rsp)
	.loc	38 0 24 is_stmt 0
	movq	(%rsp), %rax
	.loc	38 1075 6 is_stmt 1
	addq	$56, %rsp
	.cfi_def_cfa_offset 8
	retq
.Ltmp495:
.Lfunc_end129:
	.size	_ZN5alloc5boxed16Box$LT$T$C$A$GT$4leak17hb159121aed65175aE, .Lfunc_end129-_ZN5alloc5boxed16Box$LT$T$C$A$GT$4leak17hb159121aed65175aE
	.cfi_endproc

	.section	".text._ZN5alloc5boxed16Box$LT$T$C$A$GT$8into_raw17h6b4d92e7f8567774E","ax",@progbits
	.p2align	4, 0x90
	.type	_ZN5alloc5boxed16Box$LT$T$C$A$GT$8into_raw17h6b4d92e7f8567774E,@function
_ZN5alloc5boxed16Box$LT$T$C$A$GT$8into_raw17h6b4d92e7f8567774E:
.Lfunc_begin130:
	.loc	38 948 0
	.cfi_startproc
	subq	$24, %rsp
	.cfi_def_cfa_offset 32
	movq	%rdi, 16(%rsp)
.Ltmp496:
	.loc	38 949 9 prologue_end
	callq	_ZN5alloc5boxed16Box$LT$T$C$A$GT$23into_raw_with_allocator17h3ff28e37f5f80075E
	movq	%rax, 8(%rsp)
	.loc	38 0 9 is_stmt 0
	movq	8(%rsp), %rax
	movq	%rax, (%rsp)
	movq	(%rsp), %rax
	.loc	38 950 6 is_stmt 1
	addq	$24, %rsp
	.cfi_def_cfa_offset 8
	retq
.Ltmp497:
.Lfunc_end130:
	.size	_ZN5alloc5boxed16Box$LT$T$C$A$GT$8into_raw17h6b4d92e7f8567774E, .Lfunc_end130-_ZN5alloc5boxed16Box$LT$T$C$A$GT$8into_raw17h6b4d92e7f8567774E
	.cfi_endproc

	.section	".text._ZN5alloc5slice29_$LT$impl$u20$$u5b$T$u5d$$GT$6to_vec17h63516a22fecd0946E","ax",@progbits
	.p2align	4, 0x90
	.type	_ZN5alloc5slice29_$LT$impl$u20$$u5b$T$u5d$$GT$6to_vec17h63516a22fecd0946E,@function
_ZN5alloc5slice29_$LT$impl$u20$$u5b$T$u5d$$GT$6to_vec17h63516a22fecd0946E:
.Lfunc_begin131:
	.loc	32 466 0
	.cfi_startproc
	subq	$24, %rsp
	.cfi_def_cfa_offset 32
	movq	%rdi, %rax
	movq	%rax, (%rsp)
	movq	%rsi, 8(%rsp)
	movq	%rdx, 16(%rsp)
.Ltmp498:
	.loc	32 470 9 prologue_end
	callq	_ZN5alloc5slice29_$LT$impl$u20$$u5b$T$u5d$$GT$9to_vec_in17h292915231b25d856E
	.loc	32 0 9 is_stmt 0
	movq	(%rsp), %rax
	.loc	32 471 6 is_stmt 1
	addq	$24, %rsp
	.cfi_def_cfa_offset 8
	retq
.Ltmp499:
.Lfunc_end131:
	.size	_ZN5alloc5slice29_$LT$impl$u20$$u5b$T$u5d$$GT$6to_vec17h63516a22fecd0946E, .Lfunc_end131-_ZN5alloc5slice29_$LT$impl$u20$$u5b$T$u5d$$GT$6to_vec17h63516a22fecd0946E
	.cfi_endproc

	.section	".text._ZN5alloc5slice29_$LT$impl$u20$$u5b$T$u5d$$GT$9to_vec_in17h292915231b25d856E","ax",@progbits
	.p2align	4, 0x90
	.type	_ZN5alloc5slice29_$LT$impl$u20$$u5b$T$u5d$$GT$9to_vec_in17h292915231b25d856E,@function
_ZN5alloc5slice29_$LT$impl$u20$$u5b$T$u5d$$GT$9to_vec_in17h292915231b25d856E:
.Lfunc_begin132:
	.loc	32 489 0
	.cfi_startproc
	subq	$40, %rsp
	.cfi_def_cfa_offset 48
	movq	%rdi, %rax
	movq	%rax, 8(%rsp)
	movq	%rsi, 16(%rsp)
	movq	%rdx, 24(%rsp)
.Ltmp500:
	.loc	32 494 9 prologue_end
	callq	_ZN5alloc5slice4hack6to_vec17hdea136b92401640cE
	.loc	32 0 9 is_stmt 0
	movq	8(%rsp), %rax
	.loc	32 495 6 is_stmt 1
	addq	$40, %rsp
	.cfi_def_cfa_offset 8
	retq
.Ltmp501:
.Lfunc_end132:
	.size	_ZN5alloc5slice29_$LT$impl$u20$$u5b$T$u5d$$GT$9to_vec_in17h292915231b25d856E, .Lfunc_end132-_ZN5alloc5slice29_$LT$impl$u20$$u5b$T$u5d$$GT$9to_vec_in17h292915231b25d856E
	.cfi_endproc

	.section	.text._ZN5alloc5slice4hack6to_vec17hdea136b92401640cE,"ax",@progbits
	.p2align	4, 0x90
	.type	_ZN5alloc5slice4hack6to_vec17hdea136b92401640cE,@function
_ZN5alloc5slice4hack6to_vec17hdea136b92401640cE:
.Lfunc_begin133:
	.loc	32 171 0
	.cfi_startproc
	subq	$40, %rsp
	.cfi_def_cfa_offset 48
	movq	%rdi, %rax
	movq	%rax, 8(%rsp)
	movq	%rsi, 16(%rsp)
	movq	%rdx, 24(%rsp)
.Ltmp502:
	.loc	32 172 9 prologue_end
	callq	_ZN52_$LT$T$u20$as$u20$alloc..slice..hack..ConvertVec$GT$6to_vec17h1d8f07dc58e0f9baE
	.loc	32 0 9 is_stmt 0
	movq	8(%rsp), %rax
	.loc	32 173 6 is_stmt 1
	addq	$40, %rsp
	.cfi_def_cfa_offset 8
	retq
.Ltmp503:
.Lfunc_end133:
	.size	_ZN5alloc5slice4hack6to_vec17hdea136b92401640cE, .Lfunc_end133-_ZN5alloc5slice4hack6to_vec17hdea136b92401640cE
	.cfi_endproc

	.section	".text._ZN5alloc5slice64_$LT$impl$u20$alloc..borrow..ToOwned$u20$for$u20$$u5b$T$u5d$$GT$8to_owned17h1a333226e189e50dE","ax",@progbits
	.p2align	4, 0x90
	.type	_ZN5alloc5slice64_$LT$impl$u20$alloc..borrow..ToOwned$u20$for$u20$$u5b$T$u5d$$GT$8to_owned17h1a333226e189e50dE,@function
_ZN5alloc5slice64_$LT$impl$u20$alloc..borrow..ToOwned$u20$for$u20$$u5b$T$u5d$$GT$8to_owned17h1a333226e189e50dE:
.Lfunc_begin134:
	.loc	32 837 0
	.cfi_startproc
	subq	$24, %rsp
	.cfi_def_cfa_offset 32
	movq	%rdi, %rax
	movq	%rax, (%rsp)
	movq	%rsi, 8(%rsp)
	movq	%rdx, 16(%rsp)
.Ltmp504:
	.loc	32 838 9 prologue_end
	callq	_ZN5alloc5slice29_$LT$impl$u20$$u5b$T$u5d$$GT$6to_vec17h63516a22fecd0946E
	.loc	32 0 9 is_stmt 0
	movq	(%rsp), %rax
	.loc	32 839 6 is_stmt 1
	addq	$24, %rsp
	.cfi_def_cfa_offset 8
	retq
.Ltmp505:
.Lfunc_end134:
	.size	_ZN5alloc5slice64_$LT$impl$u20$alloc..borrow..ToOwned$u20$for$u20$$u5b$T$u5d$$GT$8to_owned17h1a333226e189e50dE, .Lfunc_end134-_ZN5alloc5slice64_$LT$impl$u20$alloc..borrow..ToOwned$u20$for$u20$$u5b$T$u5d$$GT$8to_owned17h1a333226e189e50dE
	.cfi_endproc

	.section	.text._ZN5alloc6string6String19from_utf8_unchecked17h0ff953733898617dE,"ax",@progbits
	.p2align	4, 0x90
	.type	_ZN5alloc6string6String19from_utf8_unchecked17h0ff953733898617dE,@function
_ZN5alloc6string6String19from_utf8_unchecked17h0ff953733898617dE:
.Lfunc_begin135:
	.file	40 "/rustc/f1edd0429582dd29cccacaf50fd134b05593bd9c/library/alloc/src/string.rs"
	.loc	40 769 0
	.cfi_startproc
	subq	$24, %rsp
	.cfi_def_cfa_offset 32
	movq	%rdi, %rax
.Ltmp506:
	.loc	40 770 23 prologue_end
	movq	(%rsi), %rcx
	movq	%rcx, (%rsp)
	movq	8(%rsi), %rcx
	movq	%rcx, 8(%rsp)
	movq	16(%rsi), %rcx
	movq	%rcx, 16(%rsp)
	.loc	40 770 9 is_stmt 0
	movq	(%rsp), %rcx
	movq	%rcx, (%rdi)
	movq	8(%rsp), %rcx
	movq	%rcx, 8(%rdi)
	movq	16(%rsp), %rcx
	movq	%rcx, 16(%rdi)
	.loc	40 771 6 is_stmt 1
	addq	$24, %rsp
	.cfi_def_cfa_offset 8
	retq
.Ltmp507:
.Lfunc_end135:
	.size	_ZN5alloc6string6String19from_utf8_unchecked17h0ff953733898617dE, .Lfunc_end135-_ZN5alloc6string6String19from_utf8_unchecked17h0ff953733898617dE
	.cfi_endproc

	.section	.text._ZN5alloc6string6String3new17he897958833047e23E,"ax",@progbits
	.p2align	4, 0x90
	.type	_ZN5alloc6string6String3new17he897958833047e23E,@function
_ZN5alloc6string6String3new17he897958833047e23E:
.Lfunc_begin136:
	.loc	40 382 0
	.cfi_startproc
	subq	$40, %rsp
	.cfi_def_cfa_offset 48
	movq	%rdi, (%rsp)
	movq	%rdi, 8(%rsp)
.Ltmp508:
	.loc	40 383 23 prologue_end
	leaq	16(%rsp), %rdi
	callq	_ZN5alloc3vec12Vec$LT$T$GT$3new17h03ac8c5b1947512cE
	.loc	40 0 23 is_stmt 0
	movq	8(%rsp), %rax
	movq	(%rsp), %rcx
	.loc	40 383 9
	movq	16(%rsp), %rdx
	movq	%rdx, (%rcx)
	movq	24(%rsp), %rdx
	movq	%rdx, 8(%rcx)
	movq	32(%rsp), %rdx
	movq	%rdx, 16(%rcx)
	.loc	40 384 6 is_stmt 1
	addq	$40, %rsp
	.cfi_def_cfa_offset 8
	retq
.Ltmp509:
.Lfunc_end136:
	.size	_ZN5alloc6string6String3new17he897958833047e23E, .Lfunc_end136-_ZN5alloc6string6String3new17he897958833047e23E
	.cfi_endproc

	.section	.text._ZN5alloc6string6String8capacity17h58be85eebc2dd492E,"ax",@progbits
	.p2align	4, 0x90
	.type	_ZN5alloc6string6String8capacity17h58be85eebc2dd492E,@function
_ZN5alloc6string6String8capacity17h58be85eebc2dd492E:
.Lfunc_begin137:
	.loc	40 902 0
	.cfi_startproc
	subq	$24, %rsp
	.cfi_def_cfa_offset 32
	movq	%rdi, 16(%rsp)
.Ltmp510:
	.loc	40 903 9 prologue_end
	callq	_ZN5alloc3vec16Vec$LT$T$C$A$GT$8capacity17h9f281e7bde954782E
	movq	%rax, 8(%rsp)
	.loc	40 0 9 is_stmt 0
	movq	8(%rsp), %rax
	.loc	40 904 6 is_stmt 1
	addq	$24, %rsp
	.cfi_def_cfa_offset 8
	retq
.Ltmp511:
.Lfunc_end137:
	.size	_ZN5alloc6string6String8capacity17h58be85eebc2dd492E, .Lfunc_end137-_ZN5alloc6string6String8capacity17h58be85eebc2dd492E
	.cfi_endproc

	.section	.text._ZN5alloc6string6String8push_str17h08aa16d7e81950faE,"ax",@progbits
	.p2align	4, 0x90
	.type	_ZN5alloc6string6String8push_str17h08aa16d7e81950faE,@function
_ZN5alloc6string6String8push_str17h08aa16d7e81950faE:
.Lfunc_begin138:
	.loc	40 849 0
	.cfi_startproc
	subq	$88, %rsp
	.cfi_def_cfa_offset 96
	movq	%rdi, 32(%rsp)
	movq	%rsi, 40(%rsp)
	movq	%rdx, 48(%rsp)
	movq	%rdi, 8(%rsp)
	movq	%rsi, 56(%rsp)
	movq	%rdx, 64(%rsp)
.Ltmp512:
	.loc	20 238 18 prologue_end
	movq	%rsi, 72(%rsp)
	movq	%rdx, 80(%rsp)
	movq	72(%rsp), %rax
	movq	%rax, 16(%rsp)
	movq	80(%rsp), %rax
	movq	%rax, 24(%rsp)
.Ltmp513:
	.loc	20 0 18 is_stmt 0
	movq	24(%rsp), %rdx
	movq	16(%rsp), %rsi
	movq	8(%rsp), %rdi
	.loc	40 850 9 is_stmt 1
	callq	_ZN5alloc3vec16Vec$LT$T$C$A$GT$17extend_from_slice17h37a3ab1a830128fbE
	.loc	40 851 6
	addq	$88, %rsp
	.cfi_def_cfa_offset 8
	retq
.Ltmp514:
.Lfunc_end138:
	.size	_ZN5alloc6string6String8push_str17h08aa16d7e81950faE, .Lfunc_end138-_ZN5alloc6string6String8push_str17h08aa16d7e81950faE
	.cfi_endproc

	.section	.text._ZN5alloc7raw_vec11alloc_guard17h08806eb4075559a8E,"ax",@progbits
	.p2align	4, 0x90
	.type	_ZN5alloc7raw_vec11alloc_guard17h08806eb4075559a8E,@function
_ZN5alloc7raw_vec11alloc_guard17h08806eb4075559a8E:
.Lfunc_begin139:
	.loc	36 549 0
	.cfi_startproc
	subq	$56, %rsp
	.cfi_def_cfa_offset 64
	movq	%rdi, 16(%rsp)
	movq	%rdi, 24(%rsp)
	movq	%rsi, 48(%rsp)
.Ltmp515:
	.loc	36 550 8 prologue_end
	xorl	%eax, %eax
	testb	$1, %al
	jne	.LBB139_2
	.loc	36 0 8 is_stmt 0
	movq	16(%rsp), %rax
	.loc	36 553 9 is_stmt 1
	movq	$0, (%rax)
	.loc	36 550 5
	jmp	.LBB139_4
.LBB139_2:
	.loc	36 551 13
	movq	$0, 40(%rsp)
	movq	32(%rsp), %rdi
	movq	40(%rsp), %rsi
	callq	_ZN50_$LT$T$u20$as$u20$core..convert..Into$LT$U$GT$$GT$4into17ha22c725de67a9ba6E
	movq	%rax, (%rsp)
	movq	%rdx, 8(%rsp)
	.loc	36 0 13 is_stmt 0
	movq	16(%rsp), %rax
	movq	8(%rsp), %rcx
	movq	(%rsp), %rdx
	.loc	36 551 9
	movq	%rdx, 8(%rax)
	movq	%rcx, 16(%rax)
	movq	$1, (%rax)
.LBB139_4:
	.loc	36 0 9
	movq	24(%rsp), %rax
	.loc	36 555 2 is_stmt 1
	addq	$56, %rsp
	.cfi_def_cfa_offset 8
	retq
.Ltmp516:
.Lfunc_end139:
	.size	_ZN5alloc7raw_vec11alloc_guard17h08806eb4075559a8E, .Lfunc_end139-_ZN5alloc7raw_vec11alloc_guard17h08806eb4075559a8E
	.cfi_endproc

	.section	.text._ZN5alloc7raw_vec11finish_grow17h8dd1a98aee524126E,"ax",@progbits
	.p2align	4, 0x90
	.type	_ZN5alloc7raw_vec11finish_grow17h8dd1a98aee524126E,@function
_ZN5alloc7raw_vec11finish_grow17h8dd1a98aee524126E:
.Lfunc_begin140:
	.loc	36 492 0
	.cfi_startproc
	subq	$296, %rsp
	.cfi_def_cfa_offset 304
	movq	%r8, 24(%rsp)
	movq	%rcx, 32(%rsp)
.Ltmp517:
	movq	%rdi, 40(%rsp)
	movq	%rdi, 48(%rsp)
	movq	%rsi, 208(%rsp)
	movq	%rdx, 216(%rsp)
.Ltmp518:
	movq	%r8, 224(%rsp)
.Ltmp519:
	.loc	36 501 22 prologue_end
	leaq	96(%rsp), %rdi
	callq	_ZN4core6result19Result$LT$T$C$E$GT$7map_err17h2a04f63c886200ecE
.Ltmp520:
	leaq	72(%rsp), %rdi
	leaq	96(%rsp), %rsi
	callq	_ZN79_$LT$core..result..Result$LT$T$C$E$GT$$u20$as$u20$core..ops..try_trait..Try$GT$6branch17he4edae1426a6c664E
.Ltmp521:
	movq	72(%rsp), %rax
	testq	%rax, %rax
	je	.LBB140_4
	jmp	.LBB140_25
.Ltmp522:
.LBB140_25:
	jmp	.LBB140_5
.Ltmp523:
	.cfi_def_cfa_offset 8
	ud2
.LBB140_4:
	.cfi_def_cfa_offset 304
.Ltmp524:
	movq	80(%rsp), %rcx
	movq	88(%rsp), %rax
	movq	%rcx, 256(%rsp)
	movq	%rax, 264(%rsp)
.Ltmp525:
	.loc	36 501 22 is_stmt 0
	movq	%rcx, 56(%rsp)
	movq	%rax, 64(%rsp)
.Ltmp526:
	.loc	36 503 17 is_stmt 1
	leaq	56(%rsp), %rdi
	callq	_ZN4core5alloc6layout6Layout4size17h07857c8c487fbb62E
	movq	%rax, 16(%rsp)
	jmp	.LBB140_8
.Ltmp527:
.LBB140_5:
	.loc	36 0 17 is_stmt 0
	movq	40(%rsp), %rdi
	.loc	36 501 62 is_stmt 1
	movq	80(%rsp), %rsi
	movq	88(%rsp), %rdx
	movq	%rsi, 240(%rsp)
	movq	%rdx, 248(%rsp)
.Ltmp528:
	.loc	36 501 22 is_stmt 0
	callq	_ZN153_$LT$core..result..Result$LT$T$C$F$GT$$u20$as$u20$core..ops..try_trait..FromResidual$LT$core..result..Result$LT$core..convert..Infallible$C$E$GT$$GT$$GT$13from_residual17h5ff7abcc04553c8aE
.Ltmp529:
	.loc	24 1 1 is_stmt 1
	jmp	.LBB140_7
.Ltmp530:
.LBB140_7:
	.loc	36 517 2
	jmp	.LBB140_15
.Ltmp531:
.LBB140_8:
	.loc	36 0 2 is_stmt 0
	movq	16(%rsp), %rsi
.Ltmp532:
	.loc	36 503 5 is_stmt 1
	leaq	144(%rsp), %rdi
	callq	_ZN5alloc7raw_vec11alloc_guard17h08806eb4075559a8E
.Ltmp533:
	leaq	120(%rsp), %rdi
	leaq	144(%rsp), %rsi
	callq	_ZN79_$LT$core..result..Result$LT$T$C$E$GT$$u20$as$u20$core..ops..try_trait..Try$GT$6branch17hea707b6737cf7b0fE
.Ltmp534:
	movq	120(%rsp), %rax
	testq	%rax, %rax
	je	.LBB140_12
	jmp	.LBB140_26
.Ltmp535:
.LBB140_26:
	jmp	.LBB140_13
.Ltmp536:
	.cfi_def_cfa_offset 8
	ud2
.LBB140_12:
	.cfi_def_cfa_offset 304
.Ltmp537:
	.loc	36 0 5 is_stmt 0
	movq	32(%rsp), %rdx
	.loc	36 505 25 is_stmt 1
	movl	$1, %eax
	xorl	%ecx, %ecx
	cmpq	$0, (%rdx)
	cmoveq	%rcx, %rax
	cmpq	$1, %rax
	je	.LBB140_16
	jmp	.LBB140_17
.Ltmp538:
.LBB140_13:
	.loc	36 0 25 is_stmt 0
	movq	40(%rsp), %rdi
	.loc	36 503 35 is_stmt 1
	movq	128(%rsp), %rsi
	movq	136(%rsp), %rdx
	movq	%rsi, 272(%rsp)
	movq	%rdx, 280(%rsp)
.Ltmp539:
	.loc	36 503 5 is_stmt 0
	callq	_ZN153_$LT$core..result..Result$LT$T$C$F$GT$$u20$as$u20$core..ops..try_trait..FromResidual$LT$core..result..Result$LT$core..convert..Infallible$C$E$GT$$GT$$GT$13from_residual17h06f2fbfc7dec06adE
.Ltmp540:
	.loc	24 1 1 is_stmt 1
	jmp	.LBB140_7
.Ltmp541:
.LBB140_15:
	.loc	24 0 1 is_stmt 0
	movq	48(%rsp), %rax
	.loc	36 517 2 is_stmt 1
	addq	$296, %rsp
	.cfi_def_cfa_offset 8
	retq
.Ltmp542:
.LBB140_16:
	.cfi_def_cfa_offset 304
	.loc	36 0 2 is_stmt 0
	movq	32(%rsp), %rax
.Ltmp543:
	.loc	36 505 31 is_stmt 1
	movq	(%rax), %rcx
	movq	%rcx, 8(%rsp)
	movq	%rcx, 288(%rsp)
	.loc	36 505 36 is_stmt 0
	movq	8(%rax), %rcx
	movq	16(%rax), %rax
	movq	%rcx, 184(%rsp)
	movq	%rax, 192(%rsp)
	.loc	36 509 32 is_stmt 1
	leaq	184(%rsp), %rdi
	callq	_ZN4core5alloc6layout6Layout5align17h7a1d7d4fe7d0536eE
	jmp	.LBB140_20
.Ltmp544:
.LBB140_17:
	.loc	36 0 32 is_stmt 0
	movq	24(%rsp), %rdi
	.loc	36 513 24 is_stmt 1
	movq	56(%rsp), %rsi
	movq	64(%rsp), %rdx
	.loc	36 513 9 is_stmt 0
	callq	_ZN63_$LT$alloc..alloc..Global$u20$as$u20$core..alloc..Allocator$GT$8allocate17h0d84b0b77e8ed6f1E
	movq	%rdx, 176(%rsp)
	movq	%rax, 168(%rsp)
.Ltmp545:
	.loc	36 505 18 is_stmt 1
	jmp	.LBB140_19
.Ltmp546:
.LBB140_19:
	.loc	36 0 18 is_stmt 0
	movq	40(%rsp), %rdi
.Ltmp547:
	.loc	36 516 5 is_stmt 1
	movq	168(%rsp), %rsi
	movq	176(%rsp), %rdx
	.loc	36 516 20 is_stmt 0
	leaq	56(%rsp), %rax
	movq	%rax, 200(%rsp)
	.loc	36 516 5
	movq	200(%rsp), %rcx
	callq	_ZN4core6result19Result$LT$T$C$E$GT$7map_err17h4928c60a5ecfd869E
	jmp	.LBB140_24
.Ltmp548:
.LBB140_20:
	.loc	36 509 54 is_stmt 1
	leaq	56(%rsp), %rdi
	callq	_ZN4core5alloc6layout6Layout5align17h7a1d7d4fe7d0536eE
.Ltmp549:
	.loc	36 0 54 is_stmt 0
	movq	8(%rsp), %rsi
	movq	24(%rsp), %rdi
	.loc	36 510 29 is_stmt 1
	movq	184(%rsp), %rdx
	movq	192(%rsp), %rcx
	.loc	36 510 41 is_stmt 0
	movq	56(%rsp), %r8
	movq	64(%rsp), %r9
	.loc	36 510 13
	callq	_ZN63_$LT$alloc..alloc..Global$u20$as$u20$core..alloc..Allocator$GT$4grow17h91dffd7e20f06b6bE
	movq	%rdx, 176(%rsp)
	movq	%rax, 168(%rsp)
.Ltmp550:
	.loc	36 505 18 is_stmt 1
	jmp	.LBB140_19
.Ltmp551:
.LBB140_24:
	.loc	36 517 2
	jmp	.LBB140_15
.Ltmp552:
.Lfunc_end140:
	.size	_ZN5alloc7raw_vec11finish_grow17h8dd1a98aee524126E, .Lfunc_end140-_ZN5alloc7raw_vec11finish_grow17h8dd1a98aee524126E
	.cfi_endproc

	.section	".text._ZN5alloc7raw_vec11finish_grow28_$u7b$$u7b$closure$u7d$$u7d$17h57e334107d3fb449E","ax",@progbits
	.p2align	4, 0x90
	.type	_ZN5alloc7raw_vec11finish_grow28_$u7b$$u7b$closure$u7d$$u7d$17h57e334107d3fb449E,@function
_ZN5alloc7raw_vec11finish_grow28_$u7b$$u7b$closure$u7d$$u7d$17h57e334107d3fb449E:
.Lfunc_begin141:
	.loc	36 501 0
	.cfi_startproc
	subq	$32, %rsp
	.cfi_def_cfa_offset 40
.Ltmp553:
	.loc	36 501 45 prologue_end
	movq	$0, 8(%rsp)
	.loc	36 501 61 is_stmt 0
	movq	(%rsp), %rax
	movq	8(%rsp), %rdx
	addq	$32, %rsp
	.cfi_def_cfa_offset 8
	retq
.Ltmp554:
.Lfunc_end141:
	.size	_ZN5alloc7raw_vec11finish_grow28_$u7b$$u7b$closure$u7d$$u7d$17h57e334107d3fb449E, .Lfunc_end141-_ZN5alloc7raw_vec11finish_grow28_$u7b$$u7b$closure$u7d$$u7d$17h57e334107d3fb449E
	.cfi_endproc

	.section	".text._ZN5alloc7raw_vec11finish_grow28_$u7b$$u7b$closure$u7d$$u7d$17hd0e4eea2582a4fa6E","ax",@progbits
	.p2align	4, 0x90
	.type	_ZN5alloc7raw_vec11finish_grow28_$u7b$$u7b$closure$u7d$$u7d$17hd0e4eea2582a4fa6E,@function
_ZN5alloc7raw_vec11finish_grow28_$u7b$$u7b$closure$u7d$$u7d$17hd0e4eea2582a4fa6E:
.Lfunc_begin142:
	.loc	36 516 0 is_stmt 1
	.cfi_startproc
	subq	$56, %rsp
	.cfi_def_cfa_offset 64
	movq	%rdi, 40(%rsp)
.Ltmp555:
	.loc	36 516 45 prologue_end
	movq	(%rdi), %rcx
	movq	8(%rdi), %rax
	.loc	36 516 24 is_stmt 0
	movq	%rcx, 24(%rsp)
	movq	%rax, 32(%rsp)
	movq	24(%rsp), %rdi
	movq	32(%rsp), %rsi
	callq	_ZN50_$LT$T$u20$as$u20$core..convert..Into$LT$U$GT$$GT$4into17ha22c725de67a9ba6E
	movq	%rax, 8(%rsp)
	movq	%rdx, 16(%rsp)
	.loc	36 0 24
	movq	16(%rsp), %rdx
	movq	8(%rsp), %rax
	.loc	36 516 84
	addq	$56, %rsp
	.cfi_def_cfa_offset 8
	retq
.Ltmp556:
.Lfunc_end142:
	.size	_ZN5alloc7raw_vec11finish_grow28_$u7b$$u7b$closure$u7d$$u7d$17hd0e4eea2582a4fa6E, .Lfunc_end142-_ZN5alloc7raw_vec11finish_grow28_$u7b$$u7b$closure$u7d$$u7d$17hd0e4eea2582a4fa6E
	.cfi_endproc

	.section	.text._ZN5alloc7raw_vec14handle_reserve17h6d13c914921855d2E,"ax",@progbits
	.p2align	4, 0x90
	.type	_ZN5alloc7raw_vec14handle_reserve17h6d13c914921855d2E,@function
_ZN5alloc7raw_vec14handle_reserve17h6d13c914921855d2E:
.Lfunc_begin143:
	.loc	36 531 0 is_stmt 1
	.cfi_startproc
	subq	$72, %rsp
	.cfi_def_cfa_offset 80
.Ltmp557:
	.loc	36 532 11 prologue_end
	movq	(%rdi), %rax
	movq	%rax, 32(%rsp)
	movq	8(%rdi), %rax
	movq	%rax, 40(%rsp)
	movq	16(%rdi), %rax
	movq	%rax, 48(%rsp)
	leaq	8(%rsp), %rdi
.Ltmp558:
	leaq	32(%rsp), %rsi
	callq	_ZN4core6result19Result$LT$T$C$E$GT$7map_err17hc26a88f81a4c42d4E
.Ltmp559:
	movq	8(%rsp), %rax
	.loc	36 532 5 is_stmt 0
	testq	%rax, %rax
	je	.LBB143_3
	jmp	.LBB143_7
.Ltmp560:
.LBB143_7:
	jmp	.LBB143_4
.Ltmp561:
	.cfi_def_cfa_offset 8
	.loc	36 532 11
	ud2
.LBB143_3:
	.cfi_def_cfa_offset 80
.Ltmp562:
	.loc	36 537 2 is_stmt 1
	addq	$72, %rsp
	.cfi_def_cfa_offset 8
	retq
.Ltmp563:
.LBB143_4:
	.cfi_def_cfa_offset 80
	.loc	36 532 11
	movq	24(%rsp), %rax
	testq	%rax, %rax
	setne	%al
	movzbl	%al, %eax
	.loc	36 532 5 is_stmt 0
	je	.LBB143_5
	jmp	.LBB143_8
.Ltmp564:
.LBB143_8:
	jmp	.LBB143_6
.Ltmp565:
.LBB143_5:
	.loc	36 533 34 is_stmt 1
	movq	_ZN5alloc7raw_vec17capacity_overflow17h12238855ca9dc4edE@GOTPCREL(%rip), %rax
	callq	*%rax
	ud2
.Ltmp566:
.LBB143_6:
	.loc	36 534 26
	movq	16(%rsp), %rdi
	movq	24(%rsp), %rsi
	movq	%rdi, 56(%rsp)
	movq	%rsi, 64(%rsp)
.Ltmp567:
	.loc	36 534 43 is_stmt 0
	movq	_ZN5alloc5alloc18handle_alloc_error17h6ad4108518320222E@GOTPCREL(%rip), %rax
	callq	*%rax
	ud2
.Ltmp568:
.Lfunc_end143:
	.size	_ZN5alloc7raw_vec14handle_reserve17h6d13c914921855d2E, .Lfunc_end143-_ZN5alloc7raw_vec14handle_reserve17h6d13c914921855d2E
	.cfi_endproc

	.section	".text._ZN5alloc7raw_vec14handle_reserve28_$u7b$$u7b$closure$u7d$$u7d$17h3e0c191b3c32014dE","ax",@progbits
	.p2align	4, 0x90
	.type	_ZN5alloc7raw_vec14handle_reserve28_$u7b$$u7b$closure$u7d$$u7d$17h3e0c191b3c32014dE,@function
_ZN5alloc7raw_vec14handle_reserve28_$u7b$$u7b$closure$u7d$$u7d$17h3e0c191b3c32014dE:
.Lfunc_begin144:
	.loc	36 532 0 is_stmt 1
	.cfi_startproc
	subq	$40, %rsp
	.cfi_def_cfa_offset 48
	movq	%rdi, 16(%rsp)
	movq	%rsi, 24(%rsp)
.Ltmp569:
	.loc	36 532 30 prologue_end
	leaq	16(%rsp), %rdi
	callq	_ZN5alloc11collections15TryReserveError4kind17h6c55049921d24f40E
	movq	%rax, (%rsp)
	movq	%rdx, 8(%rsp)
	.loc	36 0 30 is_stmt 0
	movq	8(%rsp), %rdx
	movq	(%rsp), %rax
	.loc	36 532 38
	addq	$40, %rsp
	.cfi_def_cfa_offset 8
	retq
.Ltmp570:
.Lfunc_end144:
	.size	_ZN5alloc7raw_vec14handle_reserve28_$u7b$$u7b$closure$u7d$$u7d$17h3e0c191b3c32014dE, .Lfunc_end144-_ZN5alloc7raw_vec14handle_reserve28_$u7b$$u7b$closure$u7d$$u7d$17h3e0c191b3c32014dE
	.cfi_endproc

	.section	".text._ZN5alloc7raw_vec19RawVec$LT$T$C$A$GT$11allocate_in17h50ee4e5cf8fe5657E","ax",@progbits
	.p2align	4, 0x90
	.type	_ZN5alloc7raw_vec19RawVec$LT$T$C$A$GT$11allocate_in17h50ee4e5cf8fe5657E,@function
_ZN5alloc7raw_vec19RawVec$LT$T$C$A$GT$11allocate_in17h50ee4e5cf8fe5657E:
.Lfunc_begin145:
	.loc	36 192 0 is_stmt 1
	.cfi_startproc
	.cfi_personality 155, DW.ref.rust_eh_personality
	.cfi_lsda 27, .Lexception10
	subq	$328, %rsp
	.cfi_def_cfa_offset 336
	movq	%rdi, 136(%rsp)
	movb	%sil, %al
	andb	$1, %al
	movb	%al, 151(%rsp)
	movq	%rdi, 256(%rsp)
.Ltmp598:
	.loc	36 193 12 prologue_end
	movb	$0, 255(%rsp)
	movb	$1, 255(%rsp)
	movl	$1, %eax
	cmpq	$0, %rax
	je	.LBB145_4
	jmp	.LBB145_5
.LBB145_2:
	.loc	36 221 5
	testb	$1, 255(%rsp)
	jne	.LBB145_33
	jmp	.LBB145_32
.LBB145_3:
.Ltmp597:
	.loc	36 0 5 is_stmt 0
	movq	%rax, %rcx
	movl	%edx, %eax
	movq	%rcx, 264(%rsp)
	movl	%eax, 272(%rsp)
	jmp	.LBB145_2
.LBB145_4:
	.loc	36 194 26 is_stmt 1
	movb	$0, 255(%rsp)
.Ltmp595:
	.loc	36 194 13 is_stmt 0
	callq	_ZN5alloc7raw_vec19RawVec$LT$T$C$A$GT$6new_in17hfacebf0a28fd8868E
.Ltmp596:
	movq	%rdx, 120(%rsp)
	movq	%rax, 128(%rsp)
	jmp	.LBB145_31
.LBB145_5:
.Ltmp571:
	.loc	36 0 13
	movq	136(%rsp), %rdi
	.loc	36 198 32 is_stmt 1
	callq	_ZN4core5alloc6layout6Layout5array17h97961169d90aaefbE
.Ltmp572:
	movq	%rdx, 104(%rsp)
	movq	%rax, 112(%rsp)
	jmp	.LBB145_6
.LBB145_6:
	.loc	36 0 32 is_stmt 0
	movq	104(%rsp), %rax
	movq	112(%rsp), %rcx
	.loc	36 198 32
	movq	%rcx, 192(%rsp)
	movq	%rax, 200(%rsp)
	movq	200(%rsp), %rax
	testq	%rax, %rax
	sete	%al
	movzbl	%al, %eax
	.loc	36 198 26
	jne	.LBB145_8
	jmp	.LBB145_34
.LBB145_34:
	jmp	.LBB145_9
	.cfi_def_cfa_offset 8
	.loc	36 198 32
	ud2
.LBB145_8:
	.cfi_def_cfa_offset 336
	.loc	36 199 20 is_stmt 1
	movq	192(%rsp), %rcx
	movq	200(%rsp), %rax
	movq	%rcx, 280(%rsp)
	movq	%rax, 288(%rsp)
.Ltmp599:
	.loc	36 199 31 is_stmt 0
	movq	%rcx, 176(%rsp)
	movq	%rax, 184(%rsp)
.Ltmp575:
	leaq	176(%rsp), %rdi
.Ltmp600:
	.loc	36 202 31 is_stmt 1
	callq	_ZN4core5alloc6layout6Layout4size17h07857c8c487fbb62E
.Ltmp576:
	movq	%rax, 96(%rsp)
	jmp	.LBB145_11
.Ltmp601:
.LBB145_9:
.Ltmp573:
	.loc	36 200 27
	movq	_ZN5alloc7raw_vec17capacity_overflow17h12238855ca9dc4edE@GOTPCREL(%rip), %rax
	callq	*%rax
.Ltmp574:
	jmp	.LBB145_10
.LBB145_10:
	.loc	36 0 27 is_stmt 0
	ud2
.LBB145_11:
.Ltmp577:
	movq	96(%rsp), %rsi
	leaq	208(%rsp), %rdi
.Ltmp602:
	.loc	36 202 19 is_stmt 1
	callq	_ZN5alloc7raw_vec11alloc_guard17h08806eb4075559a8E
.Ltmp578:
	jmp	.LBB145_12
.LBB145_12:
	movq	208(%rsp), %rax
	.loc	36 202 13 is_stmt 0
	testq	%rax, %rax
	je	.LBB145_14
	jmp	.LBB145_35
.LBB145_35:
	jmp	.LBB145_15
	.cfi_def_cfa_offset 8
	.loc	36 202 19
	ud2
.LBB145_14:
	.cfi_def_cfa_offset 336
	.loc	36 206 32 is_stmt 1
	movzbl	151(%rsp), %eax
	.loc	36 206 26 is_stmt 0
	testb	$1, %al
	je	.LBB145_17
	jmp	.LBB145_36
.LBB145_36:
	jmp	.LBB145_18
.LBB145_15:
.Ltmp579:
	.loc	36 204 27 is_stmt 1
	movq	_ZN5alloc7raw_vec17capacity_overflow17h12238855ca9dc4edE@GOTPCREL(%rip), %rax
	callq	*%rax
.Ltmp580:
	jmp	.LBB145_10
	.cfi_def_cfa_offset 8
	.loc	36 206 32
	ud2
.LBB145_17:
	.cfi_def_cfa_offset 336
	.loc	36 207 60
	movq	176(%rsp), %rsi
	movq	184(%rsp), %rdx
.Ltmp583:
	leaq	152(%rsp), %rdi
	.loc	36 207 45 is_stmt 0
	callq	_ZN63_$LT$alloc..alloc..Global$u20$as$u20$core..alloc..Allocator$GT$8allocate17h0d84b0b77e8ed6f1E
.Ltmp584:
	movq	%rdx, 80(%rsp)
	movq	%rax, 88(%rsp)
	jmp	.LBB145_21
.LBB145_18:
	.loc	36 208 60 is_stmt 1
	movq	176(%rsp), %rsi
	movq	184(%rsp), %rdx
.Ltmp581:
	leaq	152(%rsp), %rdi
	.loc	36 208 38 is_stmt 0
	callq	_ZN63_$LT$alloc..alloc..Global$u20$as$u20$core..alloc..Allocator$GT$15allocate_zeroed17h5516d205b3aa604bE
.Ltmp582:
	movq	%rdx, 64(%rsp)
	movq	%rax, 72(%rsp)
	jmp	.LBB145_19
.LBB145_19:
	.loc	36 0 38
	movq	64(%rsp), %rax
	movq	72(%rsp), %rcx
	.loc	36 208 38
	movq	%rcx, 232(%rsp)
	movq	%rax, 240(%rsp)
.LBB145_20:
.Ltmp603:
	.loc	36 210 29 is_stmt 1
	movq	232(%rsp), %rax
	testq	%rax, %rax
	sete	%al
	movzbl	%al, %eax
	.loc	36 210 23 is_stmt 0
	jne	.LBB145_23
	jmp	.LBB145_37
.LBB145_37:
	jmp	.LBB145_24
.Ltmp604:
.LBB145_21:
	.loc	36 0 23
	movq	80(%rsp), %rax
	movq	88(%rsp), %rcx
	.loc	36 207 45 is_stmt 1
	movq	%rcx, 232(%rsp)
	movq	%rax, 240(%rsp)
	.loc	36 207 66 is_stmt 0
	jmp	.LBB145_20
	.cfi_def_cfa_offset 8
.Ltmp605:
	.loc	36 210 29 is_stmt 1
	ud2
.LBB145_23:
	.cfi_def_cfa_offset 336
	.loc	36 211 20
	movq	232(%rsp), %rdi
	movq	%rdi, 40(%rsp)
	movq	240(%rsp), %rsi
	movq	%rsi, 48(%rsp)
	movq	%rdi, 296(%rsp)
	movq	%rsi, 304(%rsp)
.Ltmp606:
	.loc	36 211 28 is_stmt 0
	movq	%rdi, 312(%rsp)
	movq	%rsi, 320(%rsp)
.Ltmp607:
.Ltmp585:
	.loc	36 216 53 is_stmt 1
	callq	_ZN4core3ptr8non_null16NonNull$LT$T$GT$4cast17hecd4eafc4481ee60E
.Ltmp586:
	movq	%rax, 56(%rsp)
	jmp	.LBB145_25
.Ltmp608:
.LBB145_24:
	.loc	36 212 46
	movq	176(%rsp), %rdi
	movq	184(%rsp), %rsi
	.loc	36 212 27 is_stmt 0
	movq	_ZN5alloc5alloc18handle_alloc_error17h6ad4108518320222E@GOTPCREL(%rip), %rax
	callq	*%rax
	ud2
.LBB145_25:
.Ltmp587:
	.loc	36 0 27
	movq	56(%rsp), %rdi
.Ltmp609:
	.loc	36 216 53 is_stmt 1
	callq	_ZN4core3ptr8non_null16NonNull$LT$T$GT$6as_ptr17hf5d86412ce9e3ea7E
.Ltmp588:
	movq	%rax, 32(%rsp)
	jmp	.LBB145_26
.LBB145_26:
.Ltmp589:
	.loc	36 0 53 is_stmt 0
	movq	32(%rsp), %rdi
	.loc	36 216 31
	callq	_ZN4core3ptr6unique15Unique$LT$T$GT$13new_unchecked17haa10f10787403a37E
.Ltmp590:
	movq	%rax, 24(%rsp)
	jmp	.LBB145_27
.LBB145_27:
.Ltmp591:
	.loc	36 0 31
	movq	48(%rsp), %rsi
	movq	40(%rsp), %rdi
	.loc	36 217 48 is_stmt 1
	callq	_ZN4core3ptr8non_null26NonNull$LT$$u5b$T$u5d$$GT$3len17hf3ea5b3ffdee17a9E
.Ltmp592:
	movq	%rax, 16(%rsp)
	jmp	.LBB145_28
.LBB145_28:
.Ltmp593:
	.loc	36 0 48 is_stmt 0
	movq	16(%rsp), %rdi
	.loc	36 217 22
	callq	_ZN5alloc7raw_vec19RawVec$LT$T$C$A$GT$19capacity_from_bytes17hf5f4ca5130c77118E
.Ltmp594:
	movq	%rax, 8(%rsp)
	jmp	.LBB145_29
.LBB145_29:
	.loc	36 0 22
	movq	8(%rsp), %rax
	movq	24(%rsp), %rcx
	.loc	36 218 17 is_stmt 1
	movb	$0, 255(%rsp)
	.loc	36 215 13
	movq	%rcx, 160(%rsp)
	movq	%rax, 168(%rsp)
.Ltmp610:
.LBB145_30:
	.loc	36 221 6
	movq	160(%rsp), %rax
	movq	168(%rsp), %rdx
	addq	$328, %rsp
	.cfi_def_cfa_offset 8
	retq
.LBB145_31:
	.cfi_def_cfa_offset 336
	.loc	36 0 6 is_stmt 0
	movq	120(%rsp), %rax
	movq	128(%rsp), %rcx
	.loc	36 194 13 is_stmt 1
	movq	%rcx, 160(%rsp)
	movq	%rax, 168(%rsp)
	.loc	36 193 9
	jmp	.LBB145_30
.LBB145_32:
	.loc	36 192 5
	movq	264(%rsp), %rdi
	callq	_Unwind_Resume@PLT
	ud2
.LBB145_33:
	.loc	36 221 5
	jmp	.LBB145_32
.Ltmp611:
.Lfunc_end145:
	.size	_ZN5alloc7raw_vec19RawVec$LT$T$C$A$GT$11allocate_in17h50ee4e5cf8fe5657E, .Lfunc_end145-_ZN5alloc7raw_vec19RawVec$LT$T$C$A$GT$11allocate_in17h50ee4e5cf8fe5657E
	.cfi_endproc
	.section	".gcc_except_table._ZN5alloc7raw_vec19RawVec$LT$T$C$A$GT$11allocate_in17h50ee4e5cf8fe5657E","a",@progbits
	.p2align	2
GCC_except_table145:
.Lexception10:
	.byte	255
	.byte	255
	.byte	1
	.uleb128 .Lcst_end10-.Lcst_begin10
.Lcst_begin10:
	.uleb128 .Ltmp595-.Lfunc_begin145
	.uleb128 .Ltmp586-.Ltmp595
	.uleb128 .Ltmp597-.Lfunc_begin145
	.byte	0
	.uleb128 .Ltmp586-.Lfunc_begin145
	.uleb128 .Ltmp587-.Ltmp586
	.byte	0
	.byte	0
	.uleb128 .Ltmp587-.Lfunc_begin145
	.uleb128 .Ltmp594-.Ltmp587
	.uleb128 .Ltmp597-.Lfunc_begin145
	.byte	0
	.uleb128 .Ltmp594-.Lfunc_begin145
	.uleb128 .Lfunc_end145-.Ltmp594
	.byte	0
	.byte	0
.Lcst_end10:
	.p2align	2

	.section	".text._ZN5alloc7raw_vec19RawVec$LT$T$C$A$GT$13needs_to_grow17h29a4675197f21e7aE","ax",@progbits
	.p2align	4, 0x90
	.type	_ZN5alloc7raw_vec19RawVec$LT$T$C$A$GT$13needs_to_grow17h29a4675197f21e7aE,@function
_ZN5alloc7raw_vec19RawVec$LT$T$C$A$GT$13needs_to_grow17h29a4675197f21e7aE:
.Lfunc_begin146:
	.loc	36 404 0
	.cfi_startproc
	subq	$88, %rsp
	.cfi_def_cfa_offset 96
	movq	%rsi, 8(%rsp)
	movq	%rdx, 16(%rsp)
	movq	%rdi, 32(%rsp)
	movq	%rsi, 40(%rsp)
	movq	%rdx, 48(%rsp)
	movq	%rdi, 64(%rsp)
.Ltmp612:
	.loc	36 251 59 prologue_end
	movq	8(%rdi), %rax
	movq	%rax, 56(%rsp)
	.loc	36 252 6
	movq	56(%rsp), %rax
	movq	%rax, 24(%rsp)
.Ltmp613:
	.loc	36 0 6 is_stmt 0
	movq	8(%rsp), %rcx
	movq	24(%rsp), %rax
	movq	%rax, 72(%rsp)
	movq	%rcx, 80(%rsp)
.Ltmp614:
	.loc	11 1227 13 is_stmt 1
	subq	%rcx, %rax
	movq	%rax, (%rsp)
.Ltmp615:
	.loc	11 0 13 is_stmt 0
	movq	16(%rsp), %rax
	movq	(%rsp), %rcx
	.loc	36 405 9 is_stmt 1
	cmpq	%rcx, %rax
	seta	%al
	.loc	36 406 6
	andb	$1, %al
	movzbl	%al, %eax
	addq	$88, %rsp
	.cfi_def_cfa_offset 8
	retq
.Ltmp616:
.Lfunc_end146:
	.size	_ZN5alloc7raw_vec19RawVec$LT$T$C$A$GT$13needs_to_grow17h29a4675197f21e7aE, .Lfunc_end146-_ZN5alloc7raw_vec19RawVec$LT$T$C$A$GT$13needs_to_grow17h29a4675197f21e7aE
	.cfi_endproc

	.section	".text._ZN5alloc7raw_vec19RawVec$LT$T$C$A$GT$14current_memory17h896fc1d8e8f7e45fE","ax",@progbits
	.p2align	4, 0x90
	.type	_ZN5alloc7raw_vec19RawVec$LT$T$C$A$GT$14current_memory17h896fc1d8e8f7e45fE,@function
_ZN5alloc7raw_vec19RawVec$LT$T$C$A$GT$14current_memory17h896fc1d8e8f7e45fE:
.Lfunc_begin147:
	.loc	36 259 0
	.cfi_startproc
	subq	$136, %rsp
	.cfi_def_cfa_offset 144
	movq	%rsi, 40(%rsp)
	movq	%rdi, 48(%rsp)
	movq	%rdi, 56(%rsp)
	movq	%rsi, 96(%rsp)
.Ltmp617:
	.loc	36 260 12 prologue_end
	movl	$1, %eax
	cmpq	$0, %rax
	jne	.LBB147_3
	movb	$1, 71(%rsp)
	jmp	.LBB147_4
.LBB147_3:
	.loc	36 0 12 is_stmt 0
	movq	40(%rsp), %rax
	.loc	36 260 40
	cmpq	$0, 8(%rax)
	sete	%al
	.loc	36 260 12
	andb	$1, %al
	movb	%al, 71(%rsp)
.LBB147_4:
	testb	$1, 71(%rsp)
	jne	.LBB147_6
	.loc	36 266 29 is_stmt 1
	movq	$1, 104(%rsp)
	jmp	.LBB147_8
.LBB147_6:
	.loc	36 0 29 is_stmt 0
	movq	48(%rsp), %rax
	.loc	36 261 13 is_stmt 1
	movq	$0, (%rax)
.LBB147_7:
	.loc	36 0 13 is_stmt 0
	movq	56(%rsp), %rax
	.loc	36 272 6 is_stmt 1
	addq	$136, %rsp
	.cfi_def_cfa_offset 8
	retq
.LBB147_8:
	.cfi_def_cfa_offset 144
.Ltmp618:
	.loc	36 267 28
	jmp	.LBB147_9
.LBB147_9:
	.loc	36 0 28 is_stmt 0
	movq	40(%rsp), %rax
	.loc	36 267 50
	movq	8(%rax), %rdi
	.loc	36 267 28
	shlq	$0, %rdi
	movq	%rdi, 112(%rsp)
.Ltmp619:
	.loc	36 268 30 is_stmt 1
	movl	$1, %esi
	callq	_ZN4core5alloc6layout6Layout25from_size_align_unchecked17hdb9fcf4e68a76993E
	movq	%rax, 24(%rsp)
	movq	%rdx, 32(%rsp)
	movq	%rax, 120(%rsp)
	movq	%rdx, 128(%rsp)
	.loc	36 0 30 is_stmt 0
	movq	40(%rsp), %rax
.Ltmp620:
	.loc	36 269 23 is_stmt 1
	movq	(%rax), %rdi
	callq	_ZN4core3ptr6unique15Unique$LT$T$GT$4cast17h0c37dfba48cd372aE
	movq	%rax, 16(%rsp)
	.loc	36 0 23 is_stmt 0
	movq	16(%rsp), %rdi
	.loc	36 269 23
	callq	_ZN50_$LT$T$u20$as$u20$core..convert..Into$LT$U$GT$$GT$4into17h1a68ef3ddac55b98E
	movq	%rax, 8(%rsp)
	.loc	36 0 23
	movq	48(%rsp), %rax
	movq	32(%rsp), %rcx
	movq	24(%rsp), %rdx
	movq	8(%rsp), %rsi
	.loc	36 269 22
	movq	%rsi, 72(%rsp)
	movq	%rdx, 80(%rsp)
	movq	%rcx, 88(%rsp)
	.loc	36 269 17
	movq	72(%rsp), %rcx
	movq	%rcx, (%rax)
	movq	80(%rsp), %rcx
	movq	%rcx, 8(%rax)
	movq	88(%rsp), %rcx
	movq	%rcx, 16(%rax)
.Ltmp621:
	.loc	36 260 9 is_stmt 1
	jmp	.LBB147_7
.Ltmp622:
.Lfunc_end147:
	.size	_ZN5alloc7raw_vec19RawVec$LT$T$C$A$GT$14current_memory17h896fc1d8e8f7e45fE, .Lfunc_end147-_ZN5alloc7raw_vec19RawVec$LT$T$C$A$GT$14current_memory17h896fc1d8e8f7e45fE
	.cfi_endproc

	.section	".text._ZN5alloc7raw_vec19RawVec$LT$T$C$A$GT$14grow_amortized17hc762e15da49ad65aE","ax",@progbits
	.p2align	4, 0x90
	.type	_ZN5alloc7raw_vec19RawVec$LT$T$C$A$GT$14grow_amortized17hc762e15da49ad65aE,@function
_ZN5alloc7raw_vec19RawVec$LT$T$C$A$GT$14grow_amortized17hc762e15da49ad65aE:
.Lfunc_begin148:
	.loc	36 425 0
	.cfi_startproc
	subq	$392, %rsp
	.cfi_def_cfa_offset 400
	movq	%rcx, 64(%rsp)
	movq	%rdx, 72(%rsp)
	movq	%rsi, 80(%rsp)
	movq	%rdi, 88(%rsp)
	movq	%rdi, 96(%rsp)
	movq	%rsi, 256(%rsp)
	movq	%rdx, 264(%rsp)
	movq	%rcx, 272(%rsp)
.Ltmp623:
	.loc	36 429 12 prologue_end
	movl	$1, %eax
	cmpq	$0, %rax
	jne	.LBB148_3
	.loc	36 432 24
	movq	$0, 112(%rsp)
	movq	104(%rsp), %rdi
	movq	112(%rsp), %rsi
	callq	_ZN50_$LT$T$u20$as$u20$core..convert..Into$LT$U$GT$$GT$4into17ha22c725de67a9ba6E
	movq	%rax, 48(%rsp)
	movq	%rdx, 56(%rsp)
	jmp	.LBB148_24
.LBB148_3:
	.loc	36 0 24 is_stmt 0
	movq	64(%rsp), %rsi
	movq	72(%rsp), %rdi
	.loc	36 436 28 is_stmt 1
	callq	_ZN4core3num23_$LT$impl$u20$usize$GT$11checked_add17h2a702825d3f75cfeE
	movq	%rax, 32(%rsp)
	movq	%rdx, 40(%rsp)
	.loc	36 0 28 is_stmt 0
	movq	40(%rsp), %rdx
	movq	32(%rsp), %rsi
	.loc	36 436 62
	movq	$0, 176(%rsp)
	.loc	36 436 28
	movq	168(%rsp), %rcx
	movq	176(%rsp), %r8
	leaq	144(%rsp), %rdi
	callq	_ZN4core6option15Option$LT$T$GT$5ok_or17h496c7ebd5444c5bcE
	leaq	120(%rsp), %rdi
	leaq	144(%rsp), %rsi
	callq	_ZN79_$LT$core..result..Result$LT$T$C$E$GT$$u20$as$u20$core..ops..try_trait..Try$GT$6branch17h62ae1fa0d9837f57E
	movq	120(%rsp), %rax
	testq	%rax, %rax
	je	.LBB148_8
	jmp	.LBB148_25
.LBB148_25:
	jmp	.LBB148_9
	.cfi_def_cfa_offset 8
	ud2
.LBB148_8:
	.cfi_def_cfa_offset 400
	.loc	36 0 28
	movq	80(%rsp), %rax
	.loc	36 436 28
	movq	128(%rsp), %rsi
	movq	%rsi, 296(%rsp)
.Ltmp624:
	.loc	36 436 28
	movq	%rsi, 304(%rsp)
.Ltmp625:
	.loc	36 440 28 is_stmt 1
	movq	8(%rax), %rdi
	shlq	$1, %rdi
	.loc	36 440 19 is_stmt 0
	callq	_ZN4core3cmp3max17h0c043323229d290bE
	movq	%rax, 24(%rsp)
	movq	%rax, 312(%rsp)
	jmp	.LBB148_12
.Ltmp626:
.LBB148_9:
	.loc	36 0 19
	movq	88(%rsp), %rdi
	.loc	36 436 79 is_stmt 1
	movq	128(%rsp), %rsi
	movq	136(%rsp), %rdx
	movq	%rsi, 280(%rsp)
	movq	%rdx, 288(%rsp)
.Ltmp627:
	.loc	36 436 28 is_stmt 0
	callq	_ZN153_$LT$core..result..Result$LT$T$C$F$GT$$u20$as$u20$core..ops..try_trait..FromResidual$LT$core..result..Result$LT$core..convert..Infallible$C$E$GT$$GT$$GT$13from_residual17h3cda350f0a000915E
.Ltmp628:
	.loc	24 1 1 is_stmt 1
	jmp	.LBB148_11
.LBB148_11:
	jmp	.LBB148_22
.LBB148_12:
	.loc	24 0 1 is_stmt 0
	movq	24(%rsp), %rsi
.Ltmp629:
	.loc	36 441 19 is_stmt 1
	movl	$8, %edi
	callq	_ZN4core3cmp3max17h0c043323229d290bE
	movq	%rax, 16(%rsp)
	movq	%rax, 320(%rsp)
	.loc	36 0 19 is_stmt 0
	movq	16(%rsp), %rdi
.Ltmp630:
	.loc	36 443 26 is_stmt 1
	callq	_ZN4core5alloc6layout6Layout5array17h97961169d90aaefbE
	movq	%rax, (%rsp)
	movq	%rdx, 8(%rsp)
	movq	%rax, 328(%rsp)
	movq	%rdx, 336(%rsp)
	.loc	36 0 26 is_stmt 0
	movq	80(%rsp), %rsi
.Ltmp631:
	.loc	36 446 43 is_stmt 1
	leaq	232(%rsp), %rdi
	callq	_ZN5alloc7raw_vec19RawVec$LT$T$C$A$GT$14current_memory17h896fc1d8e8f7e45fE
	.loc	36 0 43 is_stmt 0
	movq	8(%rsp), %rdx
	movq	(%rsp), %rsi
	movq	80(%rsp), %r8
	.loc	36 446 19
	leaq	208(%rsp), %rdi
	leaq	232(%rsp), %rcx
	callq	_ZN5alloc7raw_vec11finish_grow17h8dd1a98aee524126E
	leaq	184(%rsp), %rdi
	leaq	208(%rsp), %rsi
	callq	_ZN79_$LT$core..result..Result$LT$T$C$E$GT$$u20$as$u20$core..ops..try_trait..Try$GT$6branch17h678f284827c393a6E
	movq	184(%rsp), %rax
	testq	%rax, %rax
	je	.LBB148_19
	jmp	.LBB148_26
.LBB148_26:
	jmp	.LBB148_20
	.cfi_def_cfa_offset 8
	ud2
.LBB148_19:
	.cfi_def_cfa_offset 400
	.loc	36 0 19
	movq	80(%rsp), %rdi
	.loc	36 446 19
	movq	192(%rsp), %rsi
	movq	200(%rsp), %rdx
	movq	%rsi, 360(%rsp)
	movq	%rdx, 368(%rsp)
.Ltmp632:
	.loc	36 446 19
	movq	%rsi, 376(%rsp)
	movq	%rdx, 384(%rsp)
.Ltmp633:
	.loc	36 447 9 is_stmt 1
	callq	_ZN5alloc7raw_vec19RawVec$LT$T$C$A$GT$7set_ptr17h6be49a72aac3e108E
	jmp	.LBB148_23
.Ltmp634:
.LBB148_20:
	.loc	36 0 9 is_stmt 0
	movq	88(%rsp), %rdi
	.loc	36 446 82 is_stmt 1
	movq	192(%rsp), %rsi
	movq	200(%rsp), %rdx
	movq	%rsi, 344(%rsp)
	movq	%rdx, 352(%rsp)
.Ltmp635:
	.loc	36 446 19 is_stmt 0
	callq	_ZN153_$LT$core..result..Result$LT$T$C$F$GT$$u20$as$u20$core..ops..try_trait..FromResidual$LT$core..result..Result$LT$core..convert..Infallible$C$E$GT$$GT$$GT$13from_residual17h25ef5a451a3ddfcbE
.Ltmp636:
	.loc	24 1 1 is_stmt 1
	jmp	.LBB148_11
.Ltmp637:
.LBB148_22:
	.loc	24 0 1 is_stmt 0
	movq	96(%rsp), %rax
	.loc	36 449 6 is_stmt 1
	addq	$392, %rsp
	.cfi_def_cfa_offset 8
	retq
.LBB148_23:
	.cfi_def_cfa_offset 400
	.loc	36 0 6 is_stmt 0
	movq	88(%rsp), %rax
.Ltmp638:
	.loc	36 448 9 is_stmt 1
	movq	$0, (%rax)
.Ltmp639:
	.loc	36 449 6
	jmp	.LBB148_22
.LBB148_24:
	.loc	36 0 6 is_stmt 0
	movq	88(%rsp), %rax
	movq	56(%rsp), %rcx
	movq	48(%rsp), %rdx
	.loc	36 432 20 is_stmt 1
	movq	%rdx, 8(%rax)
	movq	%rcx, 16(%rax)
	movq	$1, (%rax)
	.loc	24 1 1
	jmp	.LBB148_22
.Ltmp640:
.Lfunc_end148:
	.size	_ZN5alloc7raw_vec19RawVec$LT$T$C$A$GT$14grow_amortized17hc762e15da49ad65aE, .Lfunc_end148-_ZN5alloc7raw_vec19RawVec$LT$T$C$A$GT$14grow_amortized17hc762e15da49ad65aE
	.cfi_endproc

	.section	".text._ZN5alloc7raw_vec19RawVec$LT$T$C$A$GT$16with_capacity_in17h47142736d9f32520E","ax",@progbits
	.p2align	4, 0x90
	.type	_ZN5alloc7raw_vec19RawVec$LT$T$C$A$GT$16with_capacity_in17h47142736d9f32520E,@function
_ZN5alloc7raw_vec19RawVec$LT$T$C$A$GT$16with_capacity_in17h47142736d9f32520E:
.Lfunc_begin149:
	.loc	36 145 0
	.cfi_startproc
	subq	$40, %rsp
	.cfi_def_cfa_offset 48
	movq	%rdi, 24(%rsp)
.Ltmp641:
	.loc	36 146 37 prologue_end
	movb	$0, 23(%rsp)
	.loc	36 146 9 is_stmt 0
	movb	23(%rsp), %al
	andb	$1, %al
	movzbl	%al, %esi
	callq	_ZN5alloc7raw_vec19RawVec$LT$T$C$A$GT$11allocate_in17h50ee4e5cf8fe5657E
	movq	%rax, (%rsp)
	movq	%rdx, 8(%rsp)
	.loc	36 0 9
	movq	8(%rsp), %rdx
	movq	(%rsp), %rax
	.loc	36 147 6 is_stmt 1
	addq	$40, %rsp
	.cfi_def_cfa_offset 8
	retq
.Ltmp642:
.Lfunc_end149:
	.size	_ZN5alloc7raw_vec19RawVec$LT$T$C$A$GT$16with_capacity_in17h47142736d9f32520E, .Lfunc_end149-_ZN5alloc7raw_vec19RawVec$LT$T$C$A$GT$16with_capacity_in17h47142736d9f32520E
	.cfi_endproc

	.section	".text._ZN5alloc7raw_vec19RawVec$LT$T$C$A$GT$19capacity_from_bytes17hf5f4ca5130c77118E","ax",@progbits
	.p2align	4, 0x90
	.type	_ZN5alloc7raw_vec19RawVec$LT$T$C$A$GT$19capacity_from_bytes17hf5f4ca5130c77118E,@function
_ZN5alloc7raw_vec19RawVec$LT$T$C$A$GT$19capacity_from_bytes17hf5f4ca5130c77118E:
.Lfunc_begin150:
	.loc	36 408 0
	.cfi_startproc
	subq	$24, %rsp
	.cfi_def_cfa_offset 32
	movq	%rdi, 8(%rsp)
	movq	%rdi, 16(%rsp)
.Ltmp643:
	.loc	36 410 9 prologue_end
	movl	$1, %eax
	cmpq	$0, %rax
	sete	%al
	testb	$1, %al
	jne	.LBB150_3
	.loc	36 0 9 is_stmt 0
	movq	8(%rsp), %rax
	.loc	36 410 9
	shrq	$0, %rax
	.loc	36 411 6 is_stmt 1
	addq	$24, %rsp
	.cfi_def_cfa_offset 8
	retq
.LBB150_3:
	.cfi_def_cfa_offset 32
	.loc	36 410 9
	leaq	str.0(%rip), %rdi
	leaq	.L__unnamed_9(%rip), %rdx
	movq	_ZN4core9panicking5panic17h0ba7146865b2f9d6E@GOTPCREL(%rip), %rax
	movl	$25, %esi
	callq	*%rax
	ud2
.Ltmp644:
.Lfunc_end150:
	.size	_ZN5alloc7raw_vec19RawVec$LT$T$C$A$GT$19capacity_from_bytes17hf5f4ca5130c77118E, .Lfunc_end150-_ZN5alloc7raw_vec19RawVec$LT$T$C$A$GT$19capacity_from_bytes17hf5f4ca5130c77118E
	.cfi_endproc

	.section	".text._ZN5alloc7raw_vec19RawVec$LT$T$C$A$GT$3ptr17h02c6aab41d5934b5E","ax",@progbits
	.p2align	4, 0x90
	.type	_ZN5alloc7raw_vec19RawVec$LT$T$C$A$GT$3ptr17h02c6aab41d5934b5E,@function
_ZN5alloc7raw_vec19RawVec$LT$T$C$A$GT$3ptr17h02c6aab41d5934b5E:
.Lfunc_begin151:
	.loc	36 242 0
	.cfi_startproc
	subq	$24, %rsp
	.cfi_def_cfa_offset 32
	movq	%rdi, 16(%rsp)
.Ltmp645:
	.loc	36 243 9 prologue_end
	movq	(%rdi), %rdi
	callq	_ZN4core3ptr6unique15Unique$LT$T$GT$6as_ptr17h38f289465a9cc55fE
	movq	%rax, 8(%rsp)
	.loc	36 0 9 is_stmt 0
	movq	8(%rsp), %rax
	.loc	36 244 6 is_stmt 1
	addq	$24, %rsp
	.cfi_def_cfa_offset 8
	retq
.Ltmp646:
.Lfunc_end151:
	.size	_ZN5alloc7raw_vec19RawVec$LT$T$C$A$GT$3ptr17h02c6aab41d5934b5E, .Lfunc_end151-_ZN5alloc7raw_vec19RawVec$LT$T$C$A$GT$3ptr17h02c6aab41d5934b5E
	.cfi_endproc

	.section	".text._ZN5alloc7raw_vec19RawVec$LT$T$C$A$GT$6new_in17hfacebf0a28fd8868E","ax",@progbits
	.p2align	4, 0x90
	.type	_ZN5alloc7raw_vec19RawVec$LT$T$C$A$GT$6new_in17hfacebf0a28fd8868E,@function
_ZN5alloc7raw_vec19RawVec$LT$T$C$A$GT$6new_in17hfacebf0a28fd8868E:
.Lfunc_begin152:
	.loc	36 136 0
	.cfi_startproc
	.cfi_personality 155, DW.ref.rust_eh_personality
	.cfi_lsda 27, .Lexception11
	subq	$56, %rsp
	.cfi_def_cfa_offset 64
.Ltmp647:
.Ltmp650:
	.loc	36 138 21 prologue_end
	callq	_ZN4core3ptr6unique15Unique$LT$T$GT$8dangling17hab7c6765941b1110E
.Ltmp648:
	movq	%rax, 8(%rsp)
	jmp	.LBB152_1
.LBB152_1:
	.loc	36 0 21 is_stmt 0
	movq	8(%rsp), %rax
	.loc	36 138 9
	movq	%rax, 16(%rsp)
	movq	$0, 24(%rsp)
	.loc	36 139 6 is_stmt 1
	movq	16(%rsp), %rax
	movq	24(%rsp), %rdx
	addq	$56, %rsp
	.cfi_def_cfa_offset 8
	retq
.LBB152_2:
	.cfi_def_cfa_offset 64
	.loc	36 139 5 is_stmt 0
	jmp	.LBB152_4
.LBB152_3:
.Ltmp649:
	.loc	36 0 5
	movq	%rax, %rcx
	movl	%edx, %eax
	movq	%rcx, 40(%rsp)
	movl	%eax, 48(%rsp)
	jmp	.LBB152_2
.LBB152_4:
	.loc	36 136 5 is_stmt 1
	movq	40(%rsp), %rdi
	callq	_Unwind_Resume@PLT
	ud2
.Ltmp651:
.Lfunc_end152:
	.size	_ZN5alloc7raw_vec19RawVec$LT$T$C$A$GT$6new_in17hfacebf0a28fd8868E, .Lfunc_end152-_ZN5alloc7raw_vec19RawVec$LT$T$C$A$GT$6new_in17hfacebf0a28fd8868E
	.cfi_endproc
	.section	".gcc_except_table._ZN5alloc7raw_vec19RawVec$LT$T$C$A$GT$6new_in17hfacebf0a28fd8868E","a",@progbits
	.p2align	2
GCC_except_table152:
.Lexception11:
	.byte	255
	.byte	255
	.byte	1
	.uleb128 .Lcst_end11-.Lcst_begin11
.Lcst_begin11:
	.uleb128 .Ltmp647-.Lfunc_begin152
	.uleb128 .Ltmp648-.Ltmp647
	.uleb128 .Ltmp649-.Lfunc_begin152
	.byte	0
	.uleb128 .Ltmp648-.Lfunc_begin152
	.uleb128 .Lfunc_end152-.Ltmp648
	.byte	0
	.byte	0
.Lcst_end11:
	.p2align	2

	.section	".text._ZN5alloc7raw_vec19RawVec$LT$T$C$A$GT$7reserve17h787c4d7db6755619E","ax",@progbits
	.p2align	4, 0x90
	.type	_ZN5alloc7raw_vec19RawVec$LT$T$C$A$GT$7reserve17h787c4d7db6755619E,@function
_ZN5alloc7raw_vec19RawVec$LT$T$C$A$GT$7reserve17h787c4d7db6755619E:
.Lfunc_begin153:
	.loc	36 326 0
	.cfi_startproc
	subq	$56, %rsp
	.cfi_def_cfa_offset 64
	movq	%rdi, (%rsp)
	movq	%rsi, 8(%rsp)
	movq	%rdx, 16(%rsp)
	movq	%rdi, 32(%rsp)
	movq	%rsi, 40(%rsp)
	movq	%rdx, 48(%rsp)
.Ltmp652:
	.loc	36 340 12 prologue_end
	callq	_ZN5alloc7raw_vec19RawVec$LT$T$C$A$GT$13needs_to_grow17h29a4675197f21e7aE
	movb	%al, 31(%rsp)
	.loc	36 0 12 is_stmt 0
	movb	31(%rsp), %al
	.loc	36 340 12
	testb	$1, %al
	jne	.LBB153_3
	jmp	.LBB153_2
.LBB153_2:
	.loc	36 343 6 is_stmt 1
	addq	$56, %rsp
	.cfi_def_cfa_offset 8
	retq
.LBB153_3:
	.cfi_def_cfa_offset 64
	.loc	36 0 6 is_stmt 0
	movq	16(%rsp), %rdx
	movq	8(%rsp), %rsi
	movq	(%rsp), %rdi
	.loc	36 341 13 is_stmt 1
	callq	_ZN5alloc7raw_vec19RawVec$LT$T$C$A$GT$7reserve21do_reserve_and_handle17hca31f16b0319686aE
	.loc	36 340 9
	jmp	.LBB153_2
.Ltmp653:
.Lfunc_end153:
	.size	_ZN5alloc7raw_vec19RawVec$LT$T$C$A$GT$7reserve17h787c4d7db6755619E, .Lfunc_end153-_ZN5alloc7raw_vec19RawVec$LT$T$C$A$GT$7reserve17h787c4d7db6755619E
	.cfi_endproc

	.section	".text._ZN5alloc7raw_vec19RawVec$LT$T$C$A$GT$7reserve21do_reserve_and_handle17hca31f16b0319686aE","ax",@progbits
	.p2align	4, 0x90
	.type	_ZN5alloc7raw_vec19RawVec$LT$T$C$A$GT$7reserve21do_reserve_and_handle17hca31f16b0319686aE,@function
_ZN5alloc7raw_vec19RawVec$LT$T$C$A$GT$7reserve21do_reserve_and_handle17hca31f16b0319686aE:
.Lfunc_begin154:
	.loc	36 332 0
	.cfi_startproc
	subq	$56, %rsp
	.cfi_def_cfa_offset 64
	movq	%rdx, %rcx
	movq	%rsi, %rdx
	movq	%rdi, %rsi
	movq	%rsi, 32(%rsp)
	movq	%rdx, 40(%rsp)
	movq	%rcx, 48(%rsp)
.Ltmp654:
	.loc	36 337 28 prologue_end
	leaq	8(%rsp), %rdi
	callq	_ZN5alloc7raw_vec19RawVec$LT$T$C$A$GT$14grow_amortized17hc762e15da49ad65aE
	.loc	36 337 13 is_stmt 0
	leaq	8(%rsp), %rdi
	callq	_ZN5alloc7raw_vec14handle_reserve17h6d13c914921855d2E
	.loc	36 338 10 is_stmt 1
	addq	$56, %rsp
	.cfi_def_cfa_offset 8
	retq
.Ltmp655:
.Lfunc_end154:
	.size	_ZN5alloc7raw_vec19RawVec$LT$T$C$A$GT$7reserve21do_reserve_and_handle17hca31f16b0319686aE, .Lfunc_end154-_ZN5alloc7raw_vec19RawVec$LT$T$C$A$GT$7reserve21do_reserve_and_handle17hca31f16b0319686aE
	.cfi_endproc

	.section	".text._ZN5alloc7raw_vec19RawVec$LT$T$C$A$GT$7set_ptr17h6be49a72aac3e108E","ax",@progbits
	.p2align	4, 0x90
	.type	_ZN5alloc7raw_vec19RawVec$LT$T$C$A$GT$7set_ptr17h6be49a72aac3e108E,@function
_ZN5alloc7raw_vec19RawVec$LT$T$C$A$GT$7set_ptr17h6be49a72aac3e108E:
.Lfunc_begin155:
	.loc	36 413 0
	.cfi_startproc
	subq	$104, %rsp
	.cfi_def_cfa_offset 112
	movq	%rdx, 32(%rsp)
	movq	%rsi, %rax
	movq	32(%rsp), %rsi
	movq	%rax, 40(%rsp)
	movq	%rdi, %rax
	movq	40(%rsp), %rdi
	movq	%rax, 48(%rsp)
	movq	%rdi, 56(%rsp)
	movq	%rsi, 64(%rsp)
	movq	%rax, 80(%rsp)
	movq	%rdi, 88(%rsp)
	movq	%rsi, 96(%rsp)
.Ltmp656:
	.loc	36 414 51 prologue_end
	callq	_ZN4core3ptr8non_null16NonNull$LT$T$GT$4cast17hecd4eafc4481ee60E
	movq	%rax, 72(%rsp)
	.loc	36 0 51 is_stmt 0
	movq	72(%rsp), %rdi
	.loc	36 414 51
	callq	_ZN4core3ptr8non_null16NonNull$LT$T$GT$6as_ptr17hf5d86412ce9e3ea7E
	movq	%rax, 24(%rsp)
	.loc	36 0 51
	movq	24(%rsp), %rdi
	.loc	36 414 29
	callq	_ZN4core3ptr6unique15Unique$LT$T$GT$13new_unchecked17haa10f10787403a37E
	movq	%rax, 16(%rsp)
	.loc	36 0 29
	movq	64(%rsp), %rsi
	movq	56(%rsp), %rdi
	movq	48(%rsp), %rax
	movq	16(%rsp), %rcx
	.loc	36 414 9
	movq	%rcx, (%rax)
	.loc	36 415 46 is_stmt 1
	callq	_ZN4core3ptr8non_null26NonNull$LT$$u5b$T$u5d$$GT$3len17hf3ea5b3ffdee17a9E
	movq	%rax, 8(%rsp)
	.loc	36 0 46 is_stmt 0
	movq	8(%rsp), %rdi
	.loc	36 415 20
	callq	_ZN5alloc7raw_vec19RawVec$LT$T$C$A$GT$19capacity_from_bytes17hf5f4ca5130c77118E
	movq	%rax, (%rsp)
	.loc	36 0 20
	movq	48(%rsp), %rax
	movq	(%rsp), %rcx
	.loc	36 415 9
	movq	%rcx, 8(%rax)
	.loc	36 416 6 is_stmt 1
	addq	$104, %rsp
	.cfi_def_cfa_offset 8
	retq
.Ltmp657:
.Lfunc_end155:
	.size	_ZN5alloc7raw_vec19RawVec$LT$T$C$A$GT$7set_ptr17h6be49a72aac3e108E, .Lfunc_end155-_ZN5alloc7raw_vec19RawVec$LT$T$C$A$GT$7set_ptr17h6be49a72aac3e108E
	.cfi_endproc

	.section	".text._ZN63_$LT$alloc..alloc..Global$u20$as$u20$core..alloc..Allocator$GT$10deallocate17hd2760c2e3ebf0a25E","ax",@progbits
	.p2align	4, 0x90
	.type	_ZN63_$LT$alloc..alloc..Global$u20$as$u20$core..alloc..Allocator$GT$10deallocate17hd2760c2e3ebf0a25E,@function
_ZN63_$LT$alloc..alloc..Global$u20$as$u20$core..alloc..Allocator$GT$10deallocate17hd2760c2e3ebf0a25E:
.Lfunc_begin156:
	.loc	37 235 0
	.cfi_startproc
	subq	$56, %rsp
	.cfi_def_cfa_offset 64
	movq	%rsi, 8(%rsp)
	movq	%rdx, 24(%rsp)
	movq	%rcx, 32(%rsp)
	movq	%rdi, 40(%rsp)
	movq	%rsi, 48(%rsp)
.Ltmp658:
	.loc	37 236 12 prologue_end
	leaq	24(%rsp), %rdi
	callq	_ZN4core5alloc6layout6Layout4size17h07857c8c487fbb62E
	movq	%rax, 16(%rsp)
	.loc	37 0 12 is_stmt 0
	movq	16(%rsp), %rax
	.loc	37 236 12
	cmpq	$0, %rax
	jne	.LBB156_3
	.loc	37 236 9
	jmp	.LBB156_6
.LBB156_3:
	.loc	37 0 9
	movq	8(%rsp), %rdi
	.loc	37 239 30 is_stmt 1
	callq	_ZN4core3ptr8non_null16NonNull$LT$T$GT$6as_ptr17hf5d86412ce9e3ea7E
	movq	%rax, (%rsp)
	.loc	37 0 30 is_stmt 0
	movq	(%rsp), %rdi
	.loc	37 239 44
	movq	24(%rsp), %rsi
	movq	32(%rsp), %rdx
	.loc	37 239 22
	callq	_ZN5alloc5alloc7dealloc17h69f083c539dd9eb8E
	.loc	37 236 9 is_stmt 1
	jmp	.LBB156_6
.LBB156_6:
	.loc	37 241 6
	addq	$56, %rsp
	.cfi_def_cfa_offset 8
	retq
.Ltmp659:
.Lfunc_end156:
	.size	_ZN63_$LT$alloc..alloc..Global$u20$as$u20$core..alloc..Allocator$GT$10deallocate17hd2760c2e3ebf0a25E, .Lfunc_end156-_ZN63_$LT$alloc..alloc..Global$u20$as$u20$core..alloc..Allocator$GT$10deallocate17hd2760c2e3ebf0a25E
	.cfi_endproc

	.section	".text._ZN63_$LT$alloc..alloc..Global$u20$as$u20$core..alloc..Allocator$GT$15allocate_zeroed17h5516d205b3aa604bE","ax",@progbits
	.p2align	4, 0x90
	.type	_ZN63_$LT$alloc..alloc..Global$u20$as$u20$core..alloc..Allocator$GT$15allocate_zeroed17h5516d205b3aa604bE,@function
_ZN63_$LT$alloc..alloc..Global$u20$as$u20$core..alloc..Allocator$GT$15allocate_zeroed17h5516d205b3aa604bE:
.Lfunc_begin157:
	.loc	37 230 0
	.cfi_startproc
	subq	$40, %rsp
	.cfi_def_cfa_offset 48
	movq	%rdi, 16(%rsp)
	movq	%rsi, 24(%rsp)
	movq	%rdx, 32(%rsp)
.Ltmp660:
	.loc	37 231 9 prologue_end
	movl	$1, %ecx
	callq	_ZN5alloc5alloc6Global10alloc_impl17hf94eff4d65cfd94cE
	movq	%rax, (%rsp)
	movq	%rdx, 8(%rsp)
	.loc	37 0 9 is_stmt 0
	movq	8(%rsp), %rdx
	movq	(%rsp), %rax
	.loc	37 232 6 is_stmt 1
	addq	$40, %rsp
	.cfi_def_cfa_offset 8
	retq
.Ltmp661:
.Lfunc_end157:
	.size	_ZN63_$LT$alloc..alloc..Global$u20$as$u20$core..alloc..Allocator$GT$15allocate_zeroed17h5516d205b3aa604bE, .Lfunc_end157-_ZN63_$LT$alloc..alloc..Global$u20$as$u20$core..alloc..Allocator$GT$15allocate_zeroed17h5516d205b3aa604bE
	.cfi_endproc

	.section	".text._ZN63_$LT$alloc..alloc..Global$u20$as$u20$core..alloc..Allocator$GT$4grow17h91dffd7e20f06b6bE","ax",@progbits
	.p2align	4, 0x90
	.type	_ZN63_$LT$alloc..alloc..Global$u20$as$u20$core..alloc..Allocator$GT$4grow17h91dffd7e20f06b6bE,@function
_ZN63_$LT$alloc..alloc..Global$u20$as$u20$core..alloc..Allocator$GT$4grow17h91dffd7e20f06b6bE:
.Lfunc_begin158:
	.loc	37 244 0
	.cfi_startproc
	subq	$72, %rsp
	.cfi_def_cfa_offset 80
	movq	%rdi, 24(%rsp)
	movq	%rsi, 32(%rsp)
	movq	%rdx, 40(%rsp)
	movq	%rcx, 48(%rsp)
	movq	%r8, 56(%rsp)
	movq	%r9, 64(%rsp)
.Ltmp662:
	.loc	37 251 18 prologue_end
	xorl	%eax, %eax
	movl	$0, (%rsp)
	callq	_ZN5alloc5alloc6Global9grow_impl17hbb98394ec71ea563E
	movq	%rax, 8(%rsp)
	movq	%rdx, 16(%rsp)
	.loc	37 0 18 is_stmt 0
	movq	16(%rsp), %rdx
	movq	8(%rsp), %rax
	.loc	37 252 6 is_stmt 1
	addq	$72, %rsp
	.cfi_def_cfa_offset 8
	retq
.Ltmp663:
.Lfunc_end158:
	.size	_ZN63_$LT$alloc..alloc..Global$u20$as$u20$core..alloc..Allocator$GT$4grow17h91dffd7e20f06b6bE, .Lfunc_end158-_ZN63_$LT$alloc..alloc..Global$u20$as$u20$core..alloc..Allocator$GT$4grow17h91dffd7e20f06b6bE
	.cfi_endproc

	.section	".text._ZN63_$LT$alloc..alloc..Global$u20$as$u20$core..alloc..Allocator$GT$8allocate17h0d84b0b77e8ed6f1E","ax",@progbits
	.p2align	4, 0x90
	.type	_ZN63_$LT$alloc..alloc..Global$u20$as$u20$core..alloc..Allocator$GT$8allocate17h0d84b0b77e8ed6f1E,@function
_ZN63_$LT$alloc..alloc..Global$u20$as$u20$core..alloc..Allocator$GT$8allocate17h0d84b0b77e8ed6f1E:
.Lfunc_begin159:
	.loc	37 225 0
	.cfi_startproc
	subq	$40, %rsp
	.cfi_def_cfa_offset 48
	movq	%rdi, 16(%rsp)
	movq	%rsi, 24(%rsp)
	movq	%rdx, 32(%rsp)
.Ltmp664:
	.loc	37 226 9 prologue_end
	xorl	%ecx, %ecx
	callq	_ZN5alloc5alloc6Global10alloc_impl17hf94eff4d65cfd94cE
	movq	%rax, (%rsp)
	movq	%rdx, 8(%rsp)
	.loc	37 0 9 is_stmt 0
	movq	8(%rsp), %rdx
	movq	(%rsp), %rax
	.loc	37 227 6 is_stmt 1
	addq	$40, %rsp
	.cfi_def_cfa_offset 8
	retq
.Ltmp665:
.Lfunc_end159:
	.size	_ZN63_$LT$alloc..alloc..Global$u20$as$u20$core..alloc..Allocator$GT$8allocate17h0d84b0b77e8ed6f1E, .Lfunc_end159-_ZN63_$LT$alloc..alloc..Global$u20$as$u20$core..alloc..Allocator$GT$8allocate17h0d84b0b77e8ed6f1E
	.cfi_endproc

	.section	".text._ZN65_$LT$alloc..string..String$u20$as$u20$core..ops..deref..Deref$GT$5deref17hc52b948e4f3847e2E","ax",@progbits
	.p2align	4, 0x90
	.type	_ZN65_$LT$alloc..string..String$u20$as$u20$core..ops..deref..Deref$GT$5deref17hc52b948e4f3847e2E,@function
_ZN65_$LT$alloc..string..String$u20$as$u20$core..ops..deref..Deref$GT$5deref17hc52b948e4f3847e2E:
.Lfunc_begin160:
	.loc	40 2316 0
	.cfi_startproc
	subq	$40, %rsp
	.cfi_def_cfa_offset 48
	movq	%rdi, 32(%rsp)
.Ltmp666:
	.loc	40 2317 43 prologue_end
	callq	_ZN72_$LT$alloc..vec..Vec$LT$T$C$A$GT$$u20$as$u20$core..ops..deref..Deref$GT$5deref17h9f180d3ab2f4e774E
	movq	%rax, 16(%rsp)
	movq	%rdx, 24(%rsp)
	.loc	40 0 43 is_stmt 0
	movq	24(%rsp), %rsi
	movq	16(%rsp), %rdi
	.loc	40 2317 18
	callq	_ZN4core3str8converts19from_utf8_unchecked17h271deee23e5ec5b1E
	movq	%rax, (%rsp)
	movq	%rdx, 8(%rsp)
	.loc	40 0 18
	movq	8(%rsp), %rdx
	movq	(%rsp), %rax
	.loc	40 2318 6 is_stmt 1
	addq	$40, %rsp
	.cfi_def_cfa_offset 8
	retq
.Ltmp667:
.Lfunc_end160:
	.size	_ZN65_$LT$alloc..string..String$u20$as$u20$core..ops..deref..Deref$GT$5deref17hc52b948e4f3847e2E, .Lfunc_end160-_ZN65_$LT$alloc..string..String$u20$as$u20$core..ops..deref..Deref$GT$5deref17hc52b948e4f3847e2E
	.cfi_endproc

	.section	".text._ZN66_$LT$core..alloc..layout..Layout$u20$as$u20$core..clone..Clone$GT$5clone17h085eaf3316d2bbbaE","ax",@progbits
	.p2align	4, 0x90
	.type	_ZN66_$LT$core..alloc..layout..Layout$u20$as$u20$core..clone..Clone$GT$5clone17h085eaf3316d2bbbaE,@function
_ZN66_$LT$core..alloc..layout..Layout$u20$as$u20$core..clone..Clone$GT$5clone17h085eaf3316d2bbbaE:
.Lfunc_begin161:
	.loc	23 30 0
	.cfi_startproc
	pushq	%rax
	.cfi_def_cfa_offset 16
	movq	%rdi, (%rsp)
.Ltmp668:
	.loc	23 30 16 prologue_end
	movq	(%rdi), %rax
	movq	8(%rdi), %rdx
	.loc	23 30 21 is_stmt 0
	popq	%rcx
	.cfi_def_cfa_offset 8
	retq
.Ltmp669:
.Lfunc_end161:
	.size	_ZN66_$LT$core..alloc..layout..Layout$u20$as$u20$core..clone..Clone$GT$5clone17h085eaf3316d2bbbaE, .Lfunc_end161-_ZN66_$LT$core..alloc..layout..Layout$u20$as$u20$core..clone..Clone$GT$5clone17h085eaf3316d2bbbaE
	.cfi_endproc

	.section	".text._ZN68_$LT$std..process..ExitCode$u20$as$u20$std..process..Termination$GT$6report17hfcb280273d4805fdE","ax",@progbits
	.p2align	4, 0x90
	.type	_ZN68_$LT$std..process..ExitCode$u20$as$u20$std..process..Termination$GT$6report17hfcb280273d4805fdE,@function
_ZN68_$LT$std..process..ExitCode$u20$as$u20$std..process..Termination$GT$6report17hfcb280273d4805fdE:
.Lfunc_begin162:
	.loc	33 2053 0 is_stmt 1
	.cfi_startproc
	pushq	%rax
	.cfi_def_cfa_offset 16
	movb	%dil, %al
	movb	%al, 7(%rsp)
.Ltmp670:
	.loc	33 2054 9 prologue_end
	leaq	7(%rsp), %rdi
	callq	_ZN3std3sys4unix7process14process_common8ExitCode6as_i3217hcf553bdddec385e5E
	movl	%eax, (%rsp)
	.loc	33 0 9 is_stmt 0
	movl	(%rsp), %eax
	.loc	33 2055 6 is_stmt 1
	popq	%rcx
	.cfi_def_cfa_offset 8
	retq
.Ltmp671:
.Lfunc_end162:
	.size	_ZN68_$LT$std..process..ExitCode$u20$as$u20$std..process..Termination$GT$6report17hfcb280273d4805fdE, .Lfunc_end162-_ZN68_$LT$std..process..ExitCode$u20$as$u20$std..process..Termination$GT$6report17hfcb280273d4805fdE
	.cfi_endproc

	.section	".text._ZN70_$LT$alloc..vec..Vec$LT$T$C$A$GT$$u20$as$u20$core..ops..drop..Drop$GT$4drop17h40cd0c1e81929a50E","ax",@progbits
	.p2align	4, 0x90
	.type	_ZN70_$LT$alloc..vec..Vec$LT$T$C$A$GT$$u20$as$u20$core..ops..drop..Drop$GT$4drop17h40cd0c1e81929a50E,@function
_ZN70_$LT$alloc..vec..Vec$LT$T$C$A$GT$$u20$as$u20$core..ops..drop..Drop$GT$4drop17h40cd0c1e81929a50E:
.Lfunc_begin163:
	.loc	35 2781 0
	.cfi_startproc
	subq	$24, %rsp
	.cfi_def_cfa_offset 32
	movq	%rdi, (%rsp)
	movq	%rdi, 16(%rsp)
.Ltmp672:
	.loc	35 2786 62 prologue_end
	callq	_ZN5alloc3vec16Vec$LT$T$C$A$GT$10as_mut_ptr17h04f8c21769221f87E
	movq	%rax, 8(%rsp)
	.loc	35 0 62 is_stmt 0
	movq	8(%rsp), %rdi
	movq	(%rsp), %rax
	.loc	35 2786 81
	movq	16(%rax), %rsi
	.loc	35 2786 32
	callq	_ZN4core3ptr24slice_from_raw_parts_mut17h65eb52226c15d2c3E
	.loc	35 2786 13
	jmp	.LBB163_3
.LBB163_3:
	.loc	35 2789 6 is_stmt 1
	addq	$24, %rsp
	.cfi_def_cfa_offset 8
	retq
.Ltmp673:
.Lfunc_end163:
	.size	_ZN70_$LT$alloc..vec..Vec$LT$T$C$A$GT$$u20$as$u20$core..ops..drop..Drop$GT$4drop17h40cd0c1e81929a50E, .Lfunc_end163-_ZN70_$LT$alloc..vec..Vec$LT$T$C$A$GT$$u20$as$u20$core..ops..drop..Drop$GT$4drop17h40cd0c1e81929a50E
	.cfi_endproc

	.section	".text._ZN72_$LT$alloc..vec..Vec$LT$T$C$A$GT$$u20$as$u20$core..ops..deref..Deref$GT$5deref17h9f180d3ab2f4e774E","ax",@progbits
	.p2align	4, 0x90
	.type	_ZN72_$LT$alloc..vec..Vec$LT$T$C$A$GT$$u20$as$u20$core..ops..deref..Deref$GT$5deref17h9f180d3ab2f4e774E,@function
_ZN72_$LT$alloc..vec..Vec$LT$T$C$A$GT$$u20$as$u20$core..ops..deref..Deref$GT$5deref17h9f180d3ab2f4e774E:
.Lfunc_begin164:
	.loc	35 2401 0
	.cfi_startproc
	subq	$40, %rsp
	.cfi_def_cfa_offset 48
	movq	%rdi, 16(%rsp)
	movq	%rdi, 32(%rsp)
.Ltmp674:
	.loc	35 2402 40 prologue_end
	callq	_ZN5alloc3vec16Vec$LT$T$C$A$GT$6as_ptr17h197db6d0a447f657E
	movq	%rax, 24(%rsp)
	.loc	35 0 40 is_stmt 0
	movq	24(%rsp), %rdi
	movq	16(%rsp), %rax
	.loc	35 2402 55
	movq	16(%rax), %rsi
	.loc	35 2402 18
	callq	_ZN4core5slice3raw14from_raw_parts17h8b48d8ac0c1ee4feE
	movq	%rax, (%rsp)
	movq	%rdx, 8(%rsp)
	.loc	35 0 18
	movq	8(%rsp), %rdx
	movq	(%rsp), %rax
	.loc	35 2403 6 is_stmt 1
	addq	$40, %rsp
	.cfi_def_cfa_offset 8
	retq
.Ltmp675:
.Lfunc_end164:
	.size	_ZN72_$LT$alloc..vec..Vec$LT$T$C$A$GT$$u20$as$u20$core..ops..deref..Deref$GT$5deref17h9f180d3ab2f4e774E, .Lfunc_end164-_ZN72_$LT$alloc..vec..Vec$LT$T$C$A$GT$$u20$as$u20$core..ops..deref..Deref$GT$5deref17h9f180d3ab2f4e774E
	.cfi_endproc

	.section	".text._ZN76_$LT$alloc..string..String$u20$as$u20$core..convert..From$LT$$RF$str$GT$$GT$4from17hb1806a9e292c9b59E","ax",@progbits
	.p2align	4, 0x90
	.type	_ZN76_$LT$alloc..string..String$u20$as$u20$core..convert..From$LT$$RF$str$GT$$GT$4from17hb1806a9e292c9b59E,@function
_ZN76_$LT$alloc..string..String$u20$as$u20$core..convert..From$LT$$RF$str$GT$$GT$4from17hb1806a9e292c9b59E:
.Lfunc_begin165:
	.loc	40 2509 0
	.cfi_startproc
	subq	$24, %rsp
	.cfi_def_cfa_offset 32
	movq	%rdi, %rax
	movq	%rax, (%rsp)
	movq	%rsi, 8(%rsp)
	movq	%rdx, 16(%rsp)
.Ltmp676:
	.loc	40 2510 9 prologue_end
	callq	_ZN5alloc3str56_$LT$impl$u20$alloc..borrow..ToOwned$u20$for$u20$str$GT$8to_owned17h47c8ca2d007db39fE
	.loc	40 0 9 is_stmt 0
	movq	(%rsp), %rax
	.loc	40 2511 6 is_stmt 1
	addq	$24, %rsp
	.cfi_def_cfa_offset 8
	retq
.Ltmp677:
.Lfunc_end165:
	.size	_ZN76_$LT$alloc..string..String$u20$as$u20$core..convert..From$LT$$RF$str$GT$$GT$4from17hb1806a9e292c9b59E, .Lfunc_end165-_ZN76_$LT$alloc..string..String$u20$as$u20$core..convert..From$LT$$RF$str$GT$$GT$4from17hb1806a9e292c9b59E
	.cfi_endproc

	.section	".text._ZN77_$LT$alloc..raw_vec..RawVec$LT$T$C$A$GT$$u20$as$u20$core..ops..drop..Drop$GT$4drop17h4e36ddc5892780ccE","ax",@progbits
	.p2align	4, 0x90
	.type	_ZN77_$LT$alloc..raw_vec..RawVec$LT$T$C$A$GT$$u20$as$u20$core..ops..drop..Drop$GT$4drop17h4e36ddc5892780ccE,@function
_ZN77_$LT$alloc..raw_vec..RawVec$LT$T$C$A$GT$$u20$as$u20$core..ops..drop..Drop$GT$4drop17h4e36ddc5892780ccE:
.Lfunc_begin166:
	.loc	36 521 0
	.cfi_startproc
	subq	$72, %rsp
	.cfi_def_cfa_offset 80
	movq	%rdi, %rsi
	movq	%rsi, 8(%rsp)
	movq	%rsi, 40(%rsp)
.Ltmp678:
	.loc	36 522 38 prologue_end
	leaq	16(%rsp), %rdi
	callq	_ZN5alloc7raw_vec19RawVec$LT$T$C$A$GT$14current_memory17h896fc1d8e8f7e45fE
	.loc	36 522 16 is_stmt 0
	movl	$1, %eax
	xorl	%ecx, %ecx
	cmpq	$0, 16(%rsp)
	cmoveq	%rcx, %rax
	cmpq	$1, %rax
	jne	.LBB166_3
	.loc	36 0 16
	movq	8(%rsp), %rdi
	.loc	36 522 22
	movq	16(%rsp), %rsi
	movq	%rsi, 48(%rsp)
	.loc	36 522 27
	movq	24(%rsp), %rdx
	movq	32(%rsp), %rcx
	movq	%rdx, 56(%rsp)
	movq	%rcx, 64(%rsp)
	.loc	36 523 22 is_stmt 1
	callq	_ZN63_$LT$alloc..alloc..Global$u20$as$u20$core..alloc..Allocator$GT$10deallocate17hd2760c2e3ebf0a25E
	jmp	.LBB166_4
.LBB166_3:
	.loc	36 525 6
	addq	$72, %rsp
	.cfi_def_cfa_offset 8
	retq
.LBB166_4:
	.cfi_def_cfa_offset 80
	.loc	36 522 9
	jmp	.LBB166_3
.Ltmp679:
.Lfunc_end166:
	.size	_ZN77_$LT$alloc..raw_vec..RawVec$LT$T$C$A$GT$$u20$as$u20$core..ops..drop..Drop$GT$4drop17h4e36ddc5892780ccE, .Lfunc_end166-_ZN77_$LT$alloc..raw_vec..RawVec$LT$T$C$A$GT$$u20$as$u20$core..ops..drop..Drop$GT$4drop17h4e36ddc5892780ccE
	.cfi_endproc

	.section	".text._ZN78_$LT$alloc..collections..TryReserveErrorKind$u20$as$u20$core..clone..Clone$GT$5clone17h4bf0734ddc72c0e1E","ax",@progbits
	.p2align	4, 0x90
	.type	_ZN78_$LT$alloc..collections..TryReserveErrorKind$u20$as$u20$core..clone..Clone$GT$5clone17h4bf0734ddc72c0e1E,@function
_ZN78_$LT$alloc..collections..TryReserveErrorKind$u20$as$u20$core..clone..Clone$GT$5clone17h4bf0734ddc72c0e1E:
.Lfunc_begin167:
	.loc	2 79 0
	.cfi_startproc
	subq	$72, %rsp
	.cfi_def_cfa_offset 80
	movq	%rdi, 48(%rsp)
.Ltmp680:
	.loc	2 79 10 prologue_end
	movq	%rdi, 40(%rsp)
	movq	40(%rsp), %rax
	movq	8(%rax), %rax
	testq	%rax, %rax
	setne	%al
	movzbl	%al, %eax
	je	.LBB167_2
	jmp	.LBB167_7
.LBB167_7:
	jmp	.LBB167_3
	.cfi_def_cfa_offset 8
	ud2
.LBB167_2:
	.cfi_def_cfa_offset 80
	movq	$0, 32(%rsp)
	jmp	.LBB167_6
.LBB167_3:
	.loc	2 93 9
	movq	40(%rsp), %rdi
	movq	%rdi, 56(%rsp)
	.loc	2 104 9
	movq	40(%rsp), %rax
	movq	%rax, (%rsp)
	movq	%rax, 64(%rsp)
.Ltmp681:
	.loc	2 93 9
	callq	_ZN66_$LT$core..alloc..layout..Layout$u20$as$u20$core..clone..Clone$GT$5clone17h085eaf3316d2bbbaE
	movq	%rax, 8(%rsp)
	movq	%rdx, 16(%rsp)
	.loc	2 0 9 is_stmt 0
	movq	(%rsp), %rdi
	.loc	2 104 9 is_stmt 1
	callq	_ZN4core5clone5Clone5clone17h6f8744364009ed11E
	.loc	2 0 9 is_stmt 0
	movq	16(%rsp), %rax
	movq	8(%rsp), %rcx
	.loc	2 79 10 is_stmt 1
	movq	%rcx, 24(%rsp)
	movq	%rax, 32(%rsp)
.Ltmp682:
.LBB167_6:
	.loc	2 79 15 is_stmt 0
	movq	24(%rsp), %rax
	movq	32(%rsp), %rdx
	addq	$72, %rsp
	.cfi_def_cfa_offset 8
	retq
.Ltmp683:
.Lfunc_end167:
	.size	_ZN78_$LT$alloc..collections..TryReserveErrorKind$u20$as$u20$core..clone..Clone$GT$5clone17h4bf0734ddc72c0e1E, .Lfunc_end167-_ZN78_$LT$alloc..collections..TryReserveErrorKind$u20$as$u20$core..clone..Clone$GT$5clone17h4bf0734ddc72c0e1E
	.cfi_endproc

	.section	".text._ZN79_$LT$core..result..Result$LT$T$C$E$GT$$u20$as$u20$core..ops..try_trait..Try$GT$6branch17h62ae1fa0d9837f57E","ax",@progbits
	.p2align	4, 0x90
	.type	_ZN79_$LT$core..result..Result$LT$T$C$E$GT$$u20$as$u20$core..ops..try_trait..Try$GT$6branch17h62ae1fa0d9837f57E,@function
_ZN79_$LT$core..result..Result$LT$T$C$E$GT$$u20$as$u20$core..ops..try_trait..Try$GT$6branch17h62ae1fa0d9837f57E:
.Lfunc_begin168:
	.loc	4 1901 0 is_stmt 1
	.cfi_startproc
	subq	$64, %rsp
	.cfi_def_cfa_offset 72
	movq	%rsi, (%rsp)
.Ltmp684:
	movq	%rdi, 8(%rsp)
	movq	%rdi, 16(%rsp)
.Ltmp685:
	.loc	4 1902 15 prologue_end
	movq	(%rsi), %rax
	.loc	4 1902 9 is_stmt 0
	testq	%rax, %rax
.Ltmp686:
	je	.LBB168_2
	jmp	.LBB168_5
.Ltmp687:
.LBB168_5:
	jmp	.LBB168_3
.Ltmp688:
	.cfi_def_cfa_offset 8
	.loc	4 1902 15
	ud2
.LBB168_2:
	.cfi_def_cfa_offset 72
.Ltmp689:
	.loc	4 0 15
	movq	8(%rsp), %rax
	movq	(%rsp), %rcx
	.loc	4 1903 16 is_stmt 1
	movq	8(%rcx), %rcx
	movq	%rcx, 56(%rsp)
.Ltmp690:
	.loc	4 1903 22 is_stmt 0
	movq	%rcx, 8(%rax)
	movq	$0, (%rax)
.Ltmp691:
	.loc	4 1903 45
	jmp	.LBB168_4
.Ltmp692:
.LBB168_3:
	.loc	4 0 45
	movq	8(%rsp), %rax
	movq	(%rsp), %rcx
	.loc	4 1904 17 is_stmt 1
	movq	8(%rcx), %rdx
	movq	16(%rcx), %rcx
	movq	%rdx, 40(%rsp)
	movq	%rcx, 48(%rsp)
.Ltmp693:
	.loc	4 1904 42 is_stmt 0
	movq	%rdx, 24(%rsp)
	movq	%rcx, 32(%rsp)
	.loc	4 1904 23
	movq	24(%rsp), %rdx
	movq	32(%rsp), %rcx
	movq	%rdx, 8(%rax)
	movq	%rcx, 16(%rax)
	movq	$1, (%rax)
.Ltmp694:
.LBB168_4:
	.loc	4 0 23
	movq	16(%rsp), %rax
	.loc	4 1906 6 is_stmt 1
	addq	$64, %rsp
	.cfi_def_cfa_offset 8
	retq
.Ltmp695:
.Lfunc_end168:
	.size	_ZN79_$LT$core..result..Result$LT$T$C$E$GT$$u20$as$u20$core..ops..try_trait..Try$GT$6branch17h62ae1fa0d9837f57E, .Lfunc_end168-_ZN79_$LT$core..result..Result$LT$T$C$E$GT$$u20$as$u20$core..ops..try_trait..Try$GT$6branch17h62ae1fa0d9837f57E
	.cfi_endproc

	.section	".text._ZN79_$LT$core..result..Result$LT$T$C$E$GT$$u20$as$u20$core..ops..try_trait..Try$GT$6branch17h678f284827c393a6E","ax",@progbits
	.p2align	4, 0x90
	.type	_ZN79_$LT$core..result..Result$LT$T$C$E$GT$$u20$as$u20$core..ops..try_trait..Try$GT$6branch17h678f284827c393a6E,@function
_ZN79_$LT$core..result..Result$LT$T$C$E$GT$$u20$as$u20$core..ops..try_trait..Try$GT$6branch17h678f284827c393a6E:
.Lfunc_begin169:
	.loc	4 1901 0
	.cfi_startproc
	subq	$72, %rsp
	.cfi_def_cfa_offset 80
	movq	%rsi, (%rsp)
.Ltmp696:
	movq	%rdi, 8(%rsp)
	movq	%rdi, 16(%rsp)
.Ltmp697:
	.loc	4 1902 15 prologue_end
	movq	(%rsi), %rax
	.loc	4 1902 9 is_stmt 0
	testq	%rax, %rax
.Ltmp698:
	je	.LBB169_2
	jmp	.LBB169_5
.Ltmp699:
.LBB169_5:
	jmp	.LBB169_3
.Ltmp700:
	.cfi_def_cfa_offset 8
	.loc	4 1902 15
	ud2
.LBB169_2:
	.cfi_def_cfa_offset 80
.Ltmp701:
	.loc	4 0 15
	movq	8(%rsp), %rax
	movq	(%rsp), %rcx
	.loc	4 1903 16 is_stmt 1
	movq	8(%rcx), %rdx
	movq	16(%rcx), %rcx
	movq	%rdx, 56(%rsp)
	movq	%rcx, 64(%rsp)
.Ltmp702:
	.loc	4 1903 22 is_stmt 0
	movq	%rdx, 8(%rax)
	movq	%rcx, 16(%rax)
	movq	$0, (%rax)
.Ltmp703:
	.loc	4 1903 45
	jmp	.LBB169_4
.Ltmp704:
.LBB169_3:
	.loc	4 0 45
	movq	8(%rsp), %rax
	movq	(%rsp), %rcx
	.loc	4 1904 17 is_stmt 1
	movq	8(%rcx), %rdx
	movq	16(%rcx), %rcx
	movq	%rdx, 40(%rsp)
	movq	%rcx, 48(%rsp)
.Ltmp705:
	.loc	4 1904 42 is_stmt 0
	movq	%rdx, 24(%rsp)
	movq	%rcx, 32(%rsp)
	.loc	4 1904 23
	movq	24(%rsp), %rdx
	movq	32(%rsp), %rcx
	movq	%rdx, 8(%rax)
	movq	%rcx, 16(%rax)
	movq	$1, (%rax)
.Ltmp706:
.LBB169_4:
	.loc	4 0 23
	movq	16(%rsp), %rax
	.loc	4 1906 6 is_stmt 1
	addq	$72, %rsp
	.cfi_def_cfa_offset 8
	retq
.Ltmp707:
.Lfunc_end169:
	.size	_ZN79_$LT$core..result..Result$LT$T$C$E$GT$$u20$as$u20$core..ops..try_trait..Try$GT$6branch17h678f284827c393a6E, .Lfunc_end169-_ZN79_$LT$core..result..Result$LT$T$C$E$GT$$u20$as$u20$core..ops..try_trait..Try$GT$6branch17h678f284827c393a6E
	.cfi_endproc

	.section	".text._ZN79_$LT$core..result..Result$LT$T$C$E$GT$$u20$as$u20$core..ops..try_trait..Try$GT$6branch17h7ff22386525268d0E","ax",@progbits
	.p2align	4, 0x90
	.type	_ZN79_$LT$core..result..Result$LT$T$C$E$GT$$u20$as$u20$core..ops..try_trait..Try$GT$6branch17h7ff22386525268d0E,@function
_ZN79_$LT$core..result..Result$LT$T$C$E$GT$$u20$as$u20$core..ops..try_trait..Try$GT$6branch17h7ff22386525268d0E:
.Lfunc_begin170:
	.loc	4 1901 0
	.cfi_startproc
	subq	$40, %rsp
	.cfi_def_cfa_offset 48
	movq	%rdi, (%rsp)
.Ltmp708:
	.loc	4 1902 15 prologue_end
	movq	(%rsp), %rax
	testq	%rax, %rax
	sete	%al
	movzbl	%al, %eax
	.loc	4 1902 9 is_stmt 0
	jne	.LBB170_2
	jmp	.LBB170_5
.LBB170_5:
	jmp	.LBB170_3
	.cfi_def_cfa_offset 8
	.loc	4 1902 15
	ud2
.LBB170_2:
	.cfi_def_cfa_offset 48
	.loc	4 1903 16 is_stmt 1
	movq	(%rsp), %rax
	movq	%rax, 32(%rsp)
.Ltmp709:
	.loc	4 1903 22 is_stmt 0
	movq	%rax, 8(%rsp)
.Ltmp710:
	.loc	4 1903 45
	jmp	.LBB170_4
.LBB170_3:
.Ltmp711:
	.loc	4 1904 23 is_stmt 1
	movq	$0, 8(%rsp)
.Ltmp712:
.LBB170_4:
	.loc	4 1906 6
	movq	8(%rsp), %rax
	addq	$40, %rsp
	.cfi_def_cfa_offset 8
	retq
.Ltmp713:
.Lfunc_end170:
	.size	_ZN79_$LT$core..result..Result$LT$T$C$E$GT$$u20$as$u20$core..ops..try_trait..Try$GT$6branch17h7ff22386525268d0E, .Lfunc_end170-_ZN79_$LT$core..result..Result$LT$T$C$E$GT$$u20$as$u20$core..ops..try_trait..Try$GT$6branch17h7ff22386525268d0E
	.cfi_endproc

	.section	".text._ZN79_$LT$core..result..Result$LT$T$C$E$GT$$u20$as$u20$core..ops..try_trait..Try$GT$6branch17h8c4dc9c511fd8a68E","ax",@progbits
	.p2align	4, 0x90
	.type	_ZN79_$LT$core..result..Result$LT$T$C$E$GT$$u20$as$u20$core..ops..try_trait..Try$GT$6branch17h8c4dc9c511fd8a68E,@function
_ZN79_$LT$core..result..Result$LT$T$C$E$GT$$u20$as$u20$core..ops..try_trait..Try$GT$6branch17h8c4dc9c511fd8a68E:
.Lfunc_begin171:
	.loc	4 1901 0
	.cfi_startproc
	subq	$88, %rsp
	.cfi_def_cfa_offset 96
	movq	%rsi, (%rsp)
.Ltmp714:
	movq	%rdi, 8(%rsp)
	movq	%rdi, 16(%rsp)
.Ltmp715:
	.loc	4 1902 15 prologue_end
	movq	8(%rsi), %rax
	testq	%rax, %rax
	sete	%al
	movzbl	%al, %eax
.Ltmp716:
	.loc	4 1902 9 is_stmt 0
	jne	.LBB171_2
	jmp	.LBB171_5
.Ltmp717:
.LBB171_5:
	jmp	.LBB171_3
.Ltmp718:
	.cfi_def_cfa_offset 8
	.loc	4 1902 15
	ud2
.LBB171_2:
	.cfi_def_cfa_offset 96
.Ltmp719:
	.loc	4 0 15
	movq	8(%rsp), %rax
	movq	(%rsp), %rcx
	.loc	4 1903 16 is_stmt 1
	movq	(%rcx), %rdx
	movq	%rdx, 24(%rsp)
	movq	8(%rcx), %rdx
	movq	%rdx, 32(%rsp)
	movq	16(%rcx), %rcx
	movq	%rcx, 40(%rsp)
.Ltmp720:
	.loc	4 1903 44 is_stmt 0
	movq	24(%rsp), %rcx
	movq	%rcx, 48(%rsp)
	movq	32(%rsp), %rcx
	movq	%rcx, 56(%rsp)
	movq	40(%rsp), %rcx
	movq	%rcx, 64(%rsp)
	.loc	4 1903 22
	movq	48(%rsp), %rcx
	movq	%rcx, (%rax)
	movq	56(%rsp), %rcx
	movq	%rcx, 8(%rax)
	movq	64(%rsp), %rcx
	movq	%rcx, 16(%rax)
.Ltmp721:
	.loc	4 1903 45
	jmp	.LBB171_4
.Ltmp722:
.LBB171_3:
	.loc	4 0 45
	movq	8(%rsp), %rax
.Ltmp723:
	.loc	4 1904 23 is_stmt 1
	movq	$0, 8(%rax)
.Ltmp724:
.LBB171_4:
	.loc	4 0 23 is_stmt 0
	movq	16(%rsp), %rax
	.loc	4 1906 6 is_stmt 1
	addq	$88, %rsp
	.cfi_def_cfa_offset 8
	retq
.Ltmp725:
.Lfunc_end171:
	.size	_ZN79_$LT$core..result..Result$LT$T$C$E$GT$$u20$as$u20$core..ops..try_trait..Try$GT$6branch17h8c4dc9c511fd8a68E, .Lfunc_end171-_ZN79_$LT$core..result..Result$LT$T$C$E$GT$$u20$as$u20$core..ops..try_trait..Try$GT$6branch17h8c4dc9c511fd8a68E
	.cfi_endproc

	.section	".text._ZN79_$LT$core..result..Result$LT$T$C$E$GT$$u20$as$u20$core..ops..try_trait..Try$GT$6branch17h9dc5a5d1fe1a24a5E","ax",@progbits
	.p2align	4, 0x90
	.type	_ZN79_$LT$core..result..Result$LT$T$C$E$GT$$u20$as$u20$core..ops..try_trait..Try$GT$6branch17h9dc5a5d1fe1a24a5E,@function
_ZN79_$LT$core..result..Result$LT$T$C$E$GT$$u20$as$u20$core..ops..try_trait..Try$GT$6branch17h9dc5a5d1fe1a24a5E:
.Lfunc_begin172:
	.loc	4 1901 0
	.cfi_startproc
	subq	$64, %rsp
	.cfi_def_cfa_offset 72
	movq	%rdi, (%rsp)
	movq	%rsi, 8(%rsp)
.Ltmp726:
	.loc	4 1902 15 prologue_end
	movq	(%rsp), %rax
	testq	%rax, %rax
	sete	%al
	movzbl	%al, %eax
	.loc	4 1902 9 is_stmt 0
	jne	.LBB172_2
	jmp	.LBB172_5
.LBB172_5:
	jmp	.LBB172_3
	.cfi_def_cfa_offset 8
	.loc	4 1902 15
	ud2
.LBB172_2:
	.cfi_def_cfa_offset 72
	.loc	4 1903 16 is_stmt 1
	movq	(%rsp), %rcx
	movq	8(%rsp), %rax
	movq	%rcx, 48(%rsp)
	movq	%rax, 56(%rsp)
.Ltmp727:
	.loc	4 1903 22 is_stmt 0
	movq	%rcx, 16(%rsp)
	movq	%rax, 24(%rsp)
.Ltmp728:
	.loc	4 1903 45
	jmp	.LBB172_4
.LBB172_3:
.Ltmp729:
	.loc	4 1904 23 is_stmt 1
	movq	$0, 16(%rsp)
.Ltmp730:
.LBB172_4:
	.loc	4 1906 6
	movq	16(%rsp), %rax
	movq	24(%rsp), %rdx
	addq	$64, %rsp
	.cfi_def_cfa_offset 8
	retq
.Ltmp731:
.Lfunc_end172:
	.size	_ZN79_$LT$core..result..Result$LT$T$C$E$GT$$u20$as$u20$core..ops..try_trait..Try$GT$6branch17h9dc5a5d1fe1a24a5E, .Lfunc_end172-_ZN79_$LT$core..result..Result$LT$T$C$E$GT$$u20$as$u20$core..ops..try_trait..Try$GT$6branch17h9dc5a5d1fe1a24a5E
	.cfi_endproc

	.section	".text._ZN79_$LT$core..result..Result$LT$T$C$E$GT$$u20$as$u20$core..ops..try_trait..Try$GT$6branch17hd61e07e8c5959c4fE","ax",@progbits
	.p2align	4, 0x90
	.type	_ZN79_$LT$core..result..Result$LT$T$C$E$GT$$u20$as$u20$core..ops..try_trait..Try$GT$6branch17hd61e07e8c5959c4fE,@function
_ZN79_$LT$core..result..Result$LT$T$C$E$GT$$u20$as$u20$core..ops..try_trait..Try$GT$6branch17hd61e07e8c5959c4fE:
.Lfunc_begin173:
	.loc	4 1901 0
	.cfi_startproc
	subq	$56, %rsp
	.cfi_def_cfa_offset 64
	movq	%rdi, (%rsp)
	movq	%rsi, 8(%rsp)
.Ltmp732:
	.loc	4 1902 15 prologue_end
	movq	(%rsp), %rax
	.loc	4 1902 9 is_stmt 0
	testq	%rax, %rax
	je	.LBB173_2
	jmp	.LBB173_5
.LBB173_5:
	jmp	.LBB173_3
	.cfi_def_cfa_offset 8
	.loc	4 1902 15
	ud2
.LBB173_2:
	.cfi_def_cfa_offset 64
	.loc	4 1903 16 is_stmt 1
	movq	8(%rsp), %rax
	movq	%rax, 48(%rsp)
.Ltmp733:
	.loc	4 1903 22 is_stmt 0
	movq	%rax, 24(%rsp)
	movq	$0, 16(%rsp)
.Ltmp734:
	.loc	4 1903 45
	jmp	.LBB173_4
.LBB173_3:
.Ltmp735:
	.loc	4 1904 23 is_stmt 1
	movq	$1, 16(%rsp)
.Ltmp736:
.LBB173_4:
	.loc	4 1906 6
	movq	16(%rsp), %rax
	movq	24(%rsp), %rdx
	addq	$56, %rsp
	.cfi_def_cfa_offset 8
	retq
.Ltmp737:
.Lfunc_end173:
	.size	_ZN79_$LT$core..result..Result$LT$T$C$E$GT$$u20$as$u20$core..ops..try_trait..Try$GT$6branch17hd61e07e8c5959c4fE, .Lfunc_end173-_ZN79_$LT$core..result..Result$LT$T$C$E$GT$$u20$as$u20$core..ops..try_trait..Try$GT$6branch17hd61e07e8c5959c4fE
	.cfi_endproc

	.section	".text._ZN79_$LT$core..result..Result$LT$T$C$E$GT$$u20$as$u20$core..ops..try_trait..Try$GT$6branch17he4edae1426a6c664E","ax",@progbits
	.p2align	4, 0x90
	.type	_ZN79_$LT$core..result..Result$LT$T$C$E$GT$$u20$as$u20$core..ops..try_trait..Try$GT$6branch17he4edae1426a6c664E,@function
_ZN79_$LT$core..result..Result$LT$T$C$E$GT$$u20$as$u20$core..ops..try_trait..Try$GT$6branch17he4edae1426a6c664E:
.Lfunc_begin174:
	.loc	4 1901 0
	.cfi_startproc
	subq	$72, %rsp
	.cfi_def_cfa_offset 80
	movq	%rsi, (%rsp)
.Ltmp738:
	movq	%rdi, 8(%rsp)
	movq	%rdi, 16(%rsp)
.Ltmp739:
	.loc	4 1902 15 prologue_end
	movq	(%rsi), %rax
	.loc	4 1902 9 is_stmt 0
	testq	%rax, %rax
.Ltmp740:
	je	.LBB174_2
	jmp	.LBB174_5
.Ltmp741:
.LBB174_5:
	jmp	.LBB174_3
.Ltmp742:
	.cfi_def_cfa_offset 8
	.loc	4 1902 15
	ud2
.LBB174_2:
	.cfi_def_cfa_offset 80
.Ltmp743:
	.loc	4 0 15
	movq	8(%rsp), %rax
	movq	(%rsp), %rcx
	.loc	4 1903 16 is_stmt 1
	movq	8(%rcx), %rdx
	movq	16(%rcx), %rcx
	movq	%rdx, 56(%rsp)
	movq	%rcx, 64(%rsp)
.Ltmp744:
	.loc	4 1903 22 is_stmt 0
	movq	%rdx, 8(%rax)
	movq	%rcx, 16(%rax)
	movq	$0, (%rax)
.Ltmp745:
	.loc	4 1903 45
	jmp	.LBB174_4
.Ltmp746:
.LBB174_3:
	.loc	4 0 45
	movq	8(%rsp), %rax
	movq	(%rsp), %rcx
	.loc	4 1904 17 is_stmt 1
	movq	8(%rcx), %rdx
	movq	16(%rcx), %rcx
	movq	%rdx, 40(%rsp)
	movq	%rcx, 48(%rsp)
.Ltmp747:
	.loc	4 1904 42 is_stmt 0
	movq	%rdx, 24(%rsp)
	movq	%rcx, 32(%rsp)
	.loc	4 1904 23
	movq	24(%rsp), %rdx
	movq	32(%rsp), %rcx
	movq	%rdx, 8(%rax)
	movq	%rcx, 16(%rax)
	movq	$1, (%rax)
.Ltmp748:
.LBB174_4:
	.loc	4 0 23
	movq	16(%rsp), %rax
	.loc	4 1906 6 is_stmt 1
	addq	$72, %rsp
	.cfi_def_cfa_offset 8
	retq
.Ltmp749:
.Lfunc_end174:
	.size	_ZN79_$LT$core..result..Result$LT$T$C$E$GT$$u20$as$u20$core..ops..try_trait..Try$GT$6branch17he4edae1426a6c664E, .Lfunc_end174-_ZN79_$LT$core..result..Result$LT$T$C$E$GT$$u20$as$u20$core..ops..try_trait..Try$GT$6branch17he4edae1426a6c664E
	.cfi_endproc

	.section	".text._ZN79_$LT$core..result..Result$LT$T$C$E$GT$$u20$as$u20$core..ops..try_trait..Try$GT$6branch17hea707b6737cf7b0fE","ax",@progbits
	.p2align	4, 0x90
	.type	_ZN79_$LT$core..result..Result$LT$T$C$E$GT$$u20$as$u20$core..ops..try_trait..Try$GT$6branch17hea707b6737cf7b0fE,@function
_ZN79_$LT$core..result..Result$LT$T$C$E$GT$$u20$as$u20$core..ops..try_trait..Try$GT$6branch17hea707b6737cf7b0fE:
.Lfunc_begin175:
	.loc	4 1901 0
	.cfi_startproc
	subq	$64, %rsp
	.cfi_def_cfa_offset 72
	movq	%rsi, (%rsp)
.Ltmp750:
	movq	%rdi, 8(%rsp)
	movq	%rdi, 16(%rsp)
.Ltmp751:
	.loc	4 1902 15 prologue_end
	movq	(%rsi), %rax
	.loc	4 1902 9 is_stmt 0
	testq	%rax, %rax
.Ltmp752:
	je	.LBB175_2
	jmp	.LBB175_5
.Ltmp753:
.LBB175_5:
	jmp	.LBB175_3
.Ltmp754:
	.cfi_def_cfa_offset 8
	.loc	4 1902 15
	ud2
.LBB175_2:
	.cfi_def_cfa_offset 72
.Ltmp755:
	.loc	4 0 15
	movq	8(%rsp), %rax
.Ltmp756:
	.loc	4 1903 22 is_stmt 1
	movq	$0, (%rax)
.Ltmp757:
	.loc	4 1903 45 is_stmt 0
	jmp	.LBB175_4
.Ltmp758:
.LBB175_3:
	.loc	4 0 45
	movq	8(%rsp), %rax
	movq	(%rsp), %rcx
	.loc	4 1904 17 is_stmt 1
	movq	8(%rcx), %rdx
	movq	16(%rcx), %rcx
	movq	%rdx, 48(%rsp)
	movq	%rcx, 56(%rsp)
.Ltmp759:
	.loc	4 1904 42 is_stmt 0
	movq	%rdx, 24(%rsp)
	movq	%rcx, 32(%rsp)
	.loc	4 1904 23
	movq	24(%rsp), %rdx
	movq	32(%rsp), %rcx
	movq	%rdx, 8(%rax)
	movq	%rcx, 16(%rax)
	movq	$1, (%rax)
.Ltmp760:
.LBB175_4:
	.loc	4 0 23
	movq	16(%rsp), %rax
	.loc	4 1906 6 is_stmt 1
	addq	$64, %rsp
	.cfi_def_cfa_offset 8
	retq
.Ltmp761:
.Lfunc_end175:
	.size	_ZN79_$LT$core..result..Result$LT$T$C$E$GT$$u20$as$u20$core..ops..try_trait..Try$GT$6branch17hea707b6737cf7b0fE, .Lfunc_end175-_ZN79_$LT$core..result..Result$LT$T$C$E$GT$$u20$as$u20$core..ops..try_trait..Try$GT$6branch17hea707b6737cf7b0fE
	.cfi_endproc

	.section	".text._ZN95_$LT$core..ptr..unique..Unique$LT$T$GT$$u20$as$u20$core..convert..From$LT$$RF$mut$u20$T$GT$$GT$4from17haab17a59f1095e98E","ax",@progbits
	.p2align	4, 0x90
	.type	_ZN95_$LT$core..ptr..unique..Unique$LT$T$GT$$u20$as$u20$core..convert..From$LT$$RF$mut$u20$T$GT$$GT$4from17haab17a59f1095e98E,@function
_ZN95_$LT$core..ptr..unique..Unique$LT$T$GT$$u20$as$u20$core..convert..From$LT$$RF$mut$u20$T$GT$$GT$4from17haab17a59f1095e98E:
.Lfunc_begin176:
	.loc	16 181 0
	.cfi_startproc
	subq	$16, %rsp
	.cfi_def_cfa_offset 24
	movq	%rdi, 8(%rsp)
.Ltmp762:
	.loc	16 183 18 prologue_end
	movq	%rdi, (%rsp)
	.loc	16 184 6
	movq	(%rsp), %rax
	addq	$16, %rsp
	.cfi_def_cfa_offset 8
	retq
.Ltmp763:
.Lfunc_end176:
	.size	_ZN95_$LT$core..ptr..unique..Unique$LT$T$GT$$u20$as$u20$core..convert..From$LT$$RF$mut$u20$T$GT$$GT$4from17haab17a59f1095e98E, .Lfunc_end176-_ZN95_$LT$core..ptr..unique..Unique$LT$T$GT$$u20$as$u20$core..convert..From$LT$$RF$mut$u20$T$GT$$GT$4from17haab17a59f1095e98E
	.cfi_endproc

	.section	.text._ZN9ownership11mutable_str17h8e04fe313287e7dbE,"ax",@progbits
	.p2align	4, 0x90
	.type	_ZN9ownership11mutable_str17h8e04fe313287e7dbE,@function
_ZN9ownership11mutable_str17h8e04fe313287e7dbE:
.Lfunc_begin177:
	.loc	24 3 0
	.cfi_startproc
	.cfi_personality 155, DW.ref.rust_eh_personality
	.cfi_lsda 27, .Lexception12
	subq	$280, %rsp
	.cfi_def_cfa_offset 288
.Ltmp789:
	.loc	24 4 18 prologue_end
	leaq	64(%rsp), %rdi
	leaq	.L__unnamed_10(%rip), %rsi
	movl	$7, %edx
	callq	_ZN76_$LT$alloc..string..String$u20$as$u20$core..convert..From$LT$$RF$str$GT$$GT$4from17hb1806a9e292c9b59E
.Ltmp764:
.Ltmp790:
	.loc	24 5 5
	leaq	.L__unnamed_11(%rip), %rsi
	leaq	64(%rsp), %rdi
	movl	$3, %edx
	callq	_ZN5alloc6string6String8push_str17h08aa16d7e81950faE
.Ltmp765:
	jmp	.LBB177_2
.LBB177_2:
.Ltmp766:
	.loc	24 6 5
	leaq	.L__unnamed_12(%rip), %rsi
	leaq	64(%rsp), %rdi
	movl	$3, %edx
	callq	_ZN5alloc6string6String8push_str17h08aa16d7e81950faE
.Ltmp767:
	jmp	.LBB177_5
.Ltmp791:
.LBB177_3:
	.loc	24 11 1
	leaq	64(%rsp), %rdi
	callq	_ZN4core3ptr42drop_in_place$LT$alloc..string..String$GT$17h723645c7b464a9c8E
	jmp	.LBB177_16
.LBB177_4:
.Ltmp788:
	.loc	24 0 1 is_stmt 0
	movq	%rax, %rcx
	movl	%edx, %eax
	movq	%rcx, 248(%rsp)
	movl	%eax, 256(%rsp)
	jmp	.LBB177_3
.LBB177_5:
.Ltmp768:
.Ltmp792:
	.loc	24 7 5 is_stmt 1
	leaq	.L__unnamed_13(%rip), %rsi
	leaq	64(%rsp), %rdi
	movl	$3, %edx
	callq	_ZN5alloc6string6String8push_str17h08aa16d7e81950faE
.Ltmp769:
	jmp	.LBB177_6
.LBB177_6:
.Ltmp770:
	.loc	24 0 5 is_stmt 0
	leaq	64(%rsp), %rdi
	.loc	24 8 39 is_stmt 1
	callq	_ZN5alloc6string6String8capacity17h58be85eebc2dd492E
.Ltmp771:
	movq	%rax, 56(%rsp)
	jmp	.LBB177_7
.LBB177_7:
	.loc	24 0 39 is_stmt 0
	movq	56(%rsp), %rax
	.loc	24 8 39
	movq	%rax, 160(%rsp)
	leaq	160(%rsp), %rax
	.loc	24 8 5
	movq	%rax, 152(%rsp)
	movq	152(%rsp), %rdi
	movq	%rdi, 264(%rsp)
.Ltmp772:
.Ltmp793:
	.loc	24 8 5
	movq	_ZN4core3fmt3num3imp54_$LT$impl$u20$core..fmt..Display$u20$for$u20$usize$GT$3fmt17hebf36c5bce386c7bE@GOTPCREL(%rip), %rsi
	callq	_ZN4core3fmt10ArgumentV13new17hdaced6dfeb165622E
.Ltmp773:
	movq	%rdx, 40(%rsp)
	movq	%rax, 48(%rsp)
	jmp	.LBB177_8
.LBB177_8:
	.loc	24 0 5
	movq	40(%rsp), %rax
	movq	48(%rsp), %rcx
	.loc	24 8 5
	movq	%rcx, 136(%rsp)
	movq	%rax, 144(%rsp)
.Ltmp794:
.Ltmp774:
	.loc	24 8 5
	leaq	.L__unnamed_14(%rip), %rsi
	leaq	88(%rsp), %rdi
	movl	$2, %edx
	leaq	136(%rsp), %rcx
	movl	$1, %r8d
	callq	_ZN4core3fmt9Arguments6new_v117h81bcee39519af014E
.Ltmp775:
	jmp	.LBB177_9
.LBB177_9:
.Ltmp776:
	movq	_ZN3std2io5stdio6_print17hd9c9dbd31aa97d70E@GOTPCREL(%rip), %rax
	leaq	88(%rsp), %rdi
	callq	*%rax
.Ltmp777:
	jmp	.LBB177_10
.LBB177_10:
.Ltmp778:
	.loc	24 0 5
	leaq	64(%rsp), %rdi
	.loc	24 9 41 is_stmt 1
	callq	_ZN65_$LT$alloc..string..String$u20$as$u20$core..ops..deref..Deref$GT$5deref17hc52b948e4f3847e2E
.Ltmp779:
	movq	%rdx, 24(%rsp)
	movq	%rax, 32(%rsp)
	jmp	.LBB177_11
.LBB177_11:
.Ltmp780:
	.loc	24 0 41 is_stmt 0
	movq	24(%rsp), %rsi
	movq	32(%rsp), %rdi
	.loc	24 9 41
	callq	_ZN4core3str21_$LT$impl$u20$str$GT$6as_ptr17hc9f2a9f8b78efa91E
.Ltmp781:
	movq	%rax, 16(%rsp)
	jmp	.LBB177_12
.LBB177_12:
	.loc	24 0 41
	movq	16(%rsp), %rax
	.loc	24 9 41
	movq	%rax, 240(%rsp)
	leaq	240(%rsp), %rax
	.loc	24 9 5
	movq	%rax, 232(%rsp)
	movq	232(%rsp), %rdi
	movq	%rdi, 272(%rsp)
.Ltmp782:
.Ltmp795:
	.loc	24 9 5
	leaq	_ZN54_$LT$$BP$const$u20$T$u20$as$u20$core..fmt..Pointer$GT$3fmt17h0c6899f2a32084ceE(%rip), %rsi
